

Microchip MPLAB XC8 Assembler V2.10 build 88905656 
                                                                                               Mon Sep 30 10:01:27 2019

Microchip MPLAB XC8 C Compiler v2.10 (Free license) build 20190730164152 Og1 
     1                           	processor	18F8722
     2                           	fnconf	rparam,??,?,0
     3                           	opt	pw 120
     4                           	opt	flic
     5                           	psect	nvCOMRAM,global,class=COMRAM,space=1,delta=1,noexec
     6                           	psect	cinit,global,reloc=2,class=CODE,delta=1
     7                           	psect	bssCOMRAM,global,class=COMRAM,space=1,delta=1,noexec
     8                           	psect	cstackCOMRAM,global,class=COMRAM,space=1,delta=1,noexec
     9                           	psect	text0,global,reloc=2,class=CODE,delta=1
    10                           	psect	text1,global,reloc=2,class=CODE,delta=1
    11                           	psect	text2,global,reloc=2,class=CODE,delta=1
    12                           	psect	text3,global,reloc=2,class=CODE,delta=1
    13                           	psect	text4,global,reloc=2,class=CODE,delta=1
    14                           	psect	text5,global,reloc=2,class=CODE,delta=1
    15                           	psect	text6,global,reloc=2,class=CODE,delta=1
    16                           	psect	text7,global,reloc=2,class=CODE,delta=1
    17                           	psect	text8,global,reloc=2,class=CODE,delta=1
    18                           	psect	text9,global,reloc=2,class=CODE,delta=1
    19                           	psect	text10,global,reloc=2,class=CODE,delta=1
    20                           	psect	text11,global,reloc=2,class=CODE,delta=1
    21                           	psect	intcode,global,reloc=2,class=CODE,delta=1
    22                           	psect	intcode_body,global,reloc=2,class=CODE,delta=1
    23                           	psect	text13,global,reloc=2,class=CODE,delta=1
    24                           	psect	text14,global,reloc=2,class=CODE,delta=1
    25                           	psect	text15,global,reloc=2,class=CODE,delta=1
    26                           	psect	text16,global,reloc=2,class=CODE,delta=1
    27                           	psect	text17,global,reloc=2,class=CODE,delta=1
    28                           	psect	text18,global,reloc=2,class=CODE,delta=1
    29                           	psect	text19,global,reloc=2,class=CODE,delta=1
    30                           	psect	text20,global,reloc=2,class=CODE,delta=1
    31                           	psect	text21,global,reloc=2,class=CODE,delta=1
    32                           	psect	text22,global,reloc=2,class=CODE,delta=1
    33                           	psect	text23,global,reloc=2,class=CODE,delta=1,group=1
    34                           	psect	text24,global,reloc=2,class=CODE,delta=1,group=1
    35                           	psect	text25,global,reloc=2,class=CODE,delta=1
    36                           	psect	text26,global,reloc=2,class=CODE,delta=1
    37                           	psect	text27,global,reloc=2,class=CODE,delta=1
    38                           	psect	intsave_regs,global,class=BIGRAM,space=1,delta=1,noexec
    39                           	psect	rparam,global,class=COMRAM,space=1,delta=1,noexec
    40                           	psect	temp,global,ovrld,common,class=COMRAM,space=1,delta=1
    41  0000                     
    42                           ; Version 2.10
    43                           ; Generated 31/07/2019 GMT
    44                           ; 
    45                           ; Copyright © 2019, Microchip Technology Inc. and its subsidiaries ("Microchip")
    46                           ; All rights reserved.
    47                           ; 
    48                           ; This software is developed by Microchip Technology Inc. and its subsidiaries ("Microch
      +                          ip").
    49                           ; 
    50                           ; Redistribution and use in source and binary forms, with or without modification, are
    51                           ; permitted provided that the following conditions are met:
    52                           ; 
    53                           ;     1. Redistributions of source code must retain the above copyright notice, this lis
      +                          t of
    54                           ;        conditions and the following disclaimer.
    55                           ; 
    56                           ;     2. Redistributions in binary form must reproduce the above copyright notice, this 
      +                          list
    57                           ;        of conditions and the following disclaimer in the documentation and/or other
    58                           ;        materials provided with the distribution.
    59                           ; 
    60                           ;     3. Microchip's name may not be used to endorse or promote products derived from th
      +                          is
    61                           ;        software without specific prior written permission.
    62                           ; 
    63                           ; THIS SOFTWARE IS PROVIDED BY MICROCHIP "AS IS" AND ANY EXPRESS OR IMPLIED WARRANTIES,
    64                           ; INCLUDING, BUT NOT LIMITED TO, THE IMPLIED WARRANTIES OF MERCHANTABILITY AND FITNESS F
      +                          OR
    65                           ; PURPOSE ARE DISCLAIMED.  IN NO EVENT SHALL MICROCHIP BE LIABLE FOR ANY DIRECT, INDIREC
      +                          T,
    66                           ; INCIDENTAL, SPECIAL, EXEMPLARY, OR CONSEQUENTIAL DAMAGES (INCLUDING BUT NOT LIMITED TO
    67                           ; PROCUREMENT OF SUBSTITUTE GOODS OR SERVICES; LOSS OF USE, DATA OR PROFITS; OR BUSINESS
    68                           ; INTERRUPTION) HOWSOEVER CAUSED AND ON ANY THEORY OF LIABILITY, WHETHER IN CONTRACT, ST
      +                          RICT
    69                           ; LIABILITY, OR TORT (INCLUDING NEGLIGENCE OR OTHERWISE) ARISING IN ANY WAY OUT OF THE U
      +                          SE OF
    70                           ; THIS SOFTWARE, EVEN IF ADVISED OF THE POSSIBILITY OF SUCH DAMAGE.
    71                           ; 
    72                           ; 
    73                           ; Code-generator required, PIC18F8722 Definitions
    74                           ; 
    75                           ; SFR Addresses
    76  0000                     
    77                           	psect	nvCOMRAM
    78  000033                     __pnvCOMRAM:
    79                           	opt callstack 0
    80  000033                     _timer0ReloadVal:
    81                           	opt callstack 0
    82  000033                     	ds	2
    83  0000                     _TMR0	set	4054
    84  0000                     _PORTAbits	set	3968
    85  0000                     _PORTBbits	set	3969
    86  0000                     _LATCbits	set	3979
    87  0000                     _TRISCbits	set	3988
    88  0000                     _LATAbits	set	3977
    89  0000                     _LATFbits	set	3982
    90  0000                     _TRISFbits	set	3991
    91  0000                     _T0CONbits	set	4053
    92  0000                     _TMR0L	set	4054
    93  0000                     _TMR0H	set	4055
    94  0000                     _T0CON	set	4053
    95  0000                     _INTCON2bits	set	4081
    96  0000                     _RCONbits	set	4048
    97  0000                     _OSCTUNE	set	3995
    98  0000                     _OSCCON	set	4051
    99  0000                     _ADCON1	set	4033
   100  0000                     _TRISAbits	set	3986
   101  0000                     _TRISBbits	set	3987
   102  0000                     _LATD	set	3980
   103  0000                     _TRISD	set	3989
   104  0000                     _INTCONbits	set	4082
   105                           
   106                           ; #config settings
   107  0000                     
   108                           	psect	cinit
   109  00121E                     __pcinit:
   110                           	opt callstack 0
   111  00121E                     start_initialization:
   112                           	opt callstack 0
   113  00121E                     __initialization:
   114                           	opt callstack 0
   115                           
   116                           ; Clear objects allocated to COMRAM (30 bytes)
   117  00121E  EE00  F001         	lfsr	0,__pbssCOMRAM
   118  001222  0E1E               	movlw	30
   119  001224                     clear_0:
   120  001224  6AEE               	clrf	postinc0,c
   121  001226  06E8               	decf	wreg,f,c
   122  001228  E1FD               	bnz	clear_0
   123  00122A                     end_of_initialization:
   124                           	opt callstack 0
   125  00122A                     __end_of__initialization:
   126                           	opt callstack 0
   127  00122A  9035               	bcf	int$flags,0,c	;clear compiler interrupt flag (level 1)
   128  00122C  9235               	bcf	int$flags,1,c	;clear compiler interrupt flag (level 2)
   129  00122E  0100               	movlb	0
   130  001230  EF1A  F009         	goto	_main	;jump to C main() function
   131                           
   132                           	psect	bssCOMRAM
   133  000001                     __pbssCOMRAM:
   134                           	opt callstack 0
   135  000001                     _count_1sec_stopwatch:
   136                           	opt callstack 0
   137  000001                     	ds	2
   138  000003                     _number_press:
   139                           	opt callstack 0
   140  000003                     	ds	2
   141  000005                     _blink_2sec:
   142                           	opt callstack 0
   143  000005                     	ds	2
   144  000007                     _count_change_time:
   145                           	opt callstack 0
   146  000007                     	ds	2
   147  000009                     _RB0_press_count:
   148                           	opt callstack 0
   149  000009                     	ds	2
   150  00000B                     _count_1sec:
   151                           	opt callstack 0
   152  00000B                     	ds	2
   153  00000D                     _current_state:
   154                           	opt callstack 0
   155  00000D                     	ds	1
   156  00000E                     _MY_FSM:
   157                           	opt callstack 0
   158  00000E                     	ds	1
   159  00000F                     _stopwatch_firsttime:
   160                           	opt callstack 0
   161  00000F                     	ds	1
   162  000010                     _flag_change_normal_sec00_2:
   163                           	opt callstack 0
   164  000010                     	ds	1
   165  000011                     _flag_change_normal_sec2:
   166                           	opt callstack 0
   167  000011                     	ds	1
   168  000012                     _flag_change_normal_min2:
   169                           	opt callstack 0
   170  000012                     	ds	1
   171  000013                     _sec0_01:
   172                           	opt callstack 0
   173  000013                     	ds	1
   174  000014                     _sec2:
   175                           	opt callstack 0
   176  000014                     	ds	1
   177  000015                     _min2:
   178                           	opt callstack 0
   179  000015                     	ds	1
   180  000016                     _RB0flag:
   181                           	opt callstack 0
   182  000016                     	ds	1
   183  000017                     _RA5flag:
   184                           	opt callstack 0
   185  000017                     	ds	1
   186  000018                     _flag_change_normal_sec:
   187                           	opt callstack 0
   188  000018                     	ds	1
   189  000019                     _flag_change_normal_min:
   190                           	opt callstack 0
   191  000019                     	ds	1
   192  00001A                     _flag_change_normal_hour:
   193                           	opt callstack 0
   194  00001A                     	ds	1
   195  00001B                     _flag_for_dot_dot:
   196                           	opt callstack 0
   197  00001B                     	ds	1
   198  00001C                     _sec:
   199                           	opt callstack 0
   200  00001C                     	ds	1
   201  00001D                     _min:
   202                           	opt callstack 0
   203  00001D                     	ds	1
   204  00001E                     _hr:
   205                           	opt callstack 0
   206  00001E                     	ds	1
   207                           
   208                           	psect	cstackCOMRAM
   209  00001F                     __pcstackCOMRAM:
   210                           	opt callstack 0
   211  00001F                     ?___awdiv:
   212                           	opt callstack 0
   213  00001F                     ?___awmod:
   214                           	opt callstack 0
   215  00001F                     i2SendByteBBSPI@output:
   216                           	opt callstack 0
   217  00001F                     ___awdiv@dividend:
   218                           	opt callstack 0
   219  00001F                     ___awmod@dividend:
   220                           	opt callstack 0
   221                           
   222                           ; 2 bytes @ 0x0
   223  00001F                     	ds	1
   224  000020                     i2SendByteBBSPI@bitcount:
   225                           	opt callstack 0
   226                           
   227                           ; 1 bytes @ 0x1
   228  000020                     	ds	1
   229  000021                     i2SendByteBBSPI@input:
   230                           	opt callstack 0
   231  000021                     ___awdiv@divisor:
   232                           	opt callstack 0
   233  000021                     ___awmod@divisor:
   234                           	opt callstack 0
   235                           
   236                           ; 2 bytes @ 0x2
   237  000021                     	ds	1
   238  000022                     i2WritePort_BBSPI@a:
   239                           	opt callstack 0
   240                           
   241                           ; 1 bytes @ 0x3
   242  000022                     	ds	1
   243  000023                     ___awdiv@counter:
   244                           	opt callstack 0
   245  000023                     ___awmod@counter:
   246                           	opt callstack 0
   247  000023                     i2WritePort_BBSPI@port_add:
   248                           	opt callstack 0
   249                           
   250                           ; 1 bytes @ 0x4
   251  000023                     	ds	1
   252  000024                     ??_LCDPutChar:
   253  000024                     ??i2_LCDPutInst:
   254  000024                     ___awdiv@sign:
   255                           	opt callstack 0
   256  000024                     ___awmod@sign:
   257                           	opt callstack 0
   258                           
   259                           ; 1 bytes @ 0x5
   260  000024                     	ds	1
   261  000025                     LCDPutChar@ch:
   262                           	opt callstack 0
   263  000025                     i2LCDPutInst@ch:
   264                           	opt callstack 0
   265  000025                     ___awdiv@quotient:
   266                           	opt callstack 0
   267                           
   268                           ; 2 bytes @ 0x6
   269  000025                     	ds	2
   270  000027                     ??_display_normal_clock:
   271  000027                     
   272                           ; 1 bytes @ 0x8
   273  000027                     	ds	2
   274  000029                     ??_FSM_of_me:
   275  000029                     
   276                           ; 1 bytes @ 0xA
   277  000029                     	ds	2
   278  00002B                     SendByteBBSPI@output:
   279                           	opt callstack 0
   280                           
   281                           ; 1 bytes @ 0xC
   282  00002B                     	ds	1
   283  00002C                     SendByteBBSPI@bitcount:
   284                           	opt callstack 0
   285                           
   286                           ; 1 bytes @ 0xD
   287  00002C                     	ds	1
   288  00002D                     SendByteBBSPI@input:
   289                           	opt callstack 0
   290                           
   291                           ; 1 bytes @ 0xE
   292  00002D                     	ds	1
   293  00002E                     Port_BBSPIInit@port_dir:
   294                           	opt callstack 0
   295  00002E                     WritePort_BBSPI@a:
   296                           	opt callstack 0
   297                           
   298                           ; 1 bytes @ 0xF
   299  00002E                     	ds	1
   300  00002F                     WritePort_BBSPI@port_add:
   301                           	opt callstack 0
   302                           
   303                           ; 1 bytes @ 0x10
   304  00002F                     	ds	1
   305  000030                     ??_LCDPutInst:
   306                           
   307                           ; 1 bytes @ 0x11
   308  000030                     	ds	1
   309  000031                     LCDPutInst@ch:
   310                           	opt callstack 0
   311                           
   312                           ; 1 bytes @ 0x12
   313  000031                     	ds	1
   314  000032                     ??_LCDInit:
   315                           
   316                           ; 1 bytes @ 0x13
   317  000032                     	ds	1
   318  000033                     
   319                           ; 1 bytes @ 0x14
   320 ;;
   321 ;;Main: autosize = 0, tempsize = 0, incstack = 0, save=0
   322 ;;
   323 ;; *************** function _main *****************
   324 ;; Defined at:
   325 ;;		line 8 in file "main.c"
   326 ;; Parameters:    Size  Location     Type
   327 ;;		None
   328 ;; Auto vars:     Size  Location     Type
   329 ;;		None
   330 ;; Return value:  Size  Location     Type
   331 ;;                  1    wreg      void 
   332 ;; Registers used:
   333 ;;		wreg, status,2, status,0, cstack
   334 ;; Tracked objects:
   335 ;;		On entry : 0/0
   336 ;;		On exit  : 0/0
   337 ;;		Unchanged: 0/0
   338 ;; Data sizes:     COMRAM   BANK0   BANK1   BANK2   BANK3   BANK4   BANK5   BANK6   BANK7   BANK8   BANK9  BANK10  BANK1
      +1  BANK12  BANK13  BANK14  BANK15
   339 ;;      Params:         0       0       0       0       0       0       0       0       0       0       0       0       
      +0       0       0       0       0
   340 ;;      Locals:         0       0       0       0       0       0       0       0       0       0       0       0       
      +0       0       0       0       0
   341 ;;      Temps:          0       0       0       0       0       0       0       0       0       0       0       0       
      +0       0       0       0       0
   342 ;;      Totals:         0       0       0       0       0       0       0       0       0       0       0       0       
      +0       0       0       0       0
   343 ;;Total ram usage:        0 bytes
   344 ;; Hardware stack levels required when called:   11
   345 ;; This function calls:
   346 ;;		_LCDInit
   347 ;;		_system_initialize
   348 ;; This function is called by:
   349 ;;		Startup code after reset
   350 ;; This function uses a non-reentrant model
   351 ;;
   352                           
   353                           	psect	text0
   354  001234                     __ptext0:
   355                           	opt callstack 0
   356  001234                     _main:
   357                           	opt callstack 20
   358  001234                     
   359                           ;main.c: 9:     system_initialize();
   360  001234  EC24  F009         	call	_system_initialize	;wreg free
   361  001238                     
   362                           ;main.c: 10:     LCDInit();
   363  001238  EC92  F008         	call	_LCDInit	;wreg free
   364  00123C                     
   365                           ;main.c: 11:     INTCONbits.GIE = 1;
   366  00123C  8EF2               	bsf	242,7,c	;volatile
   367  00123E                     
   368                           ;main.c: 12:     INTCONbits.PEIE = 1;
   369  00123E  8CF2               	bsf	242,6,c	;volatile
   370  001240                     l61:
   371  001240  EF20  F009         	goto	l61
   372  001244  EF07  F000         	goto	start
   373  001248                     __end_of_main:
   374                           	opt callstack 0
   375                           
   376 ;; *************** function _system_initialize *****************
   377 ;; Defined at:
   378 ;;		line 3 in file "setup_basic.c"
   379 ;; Parameters:    Size  Location     Type
   380 ;;		None
   381 ;; Auto vars:     Size  Location     Type
   382 ;;		None
   383 ;; Return value:  Size  Location     Type
   384 ;;                  1    wreg      void 
   385 ;; Registers used:
   386 ;;		wreg, status,2, cstack
   387 ;; Tracked objects:
   388 ;;		On entry : 0/0
   389 ;;		On exit  : 0/0
   390 ;;		Unchanged: 0/0
   391 ;; Data sizes:     COMRAM   BANK0   BANK1   BANK2   BANK3   BANK4   BANK5   BANK6   BANK7   BANK8   BANK9  BANK10  BANK1
      +1  BANK12  BANK13  BANK14  BANK15
   392 ;;      Params:         0       0       0       0       0       0       0       0       0       0       0       0       
      +0       0       0       0       0
   393 ;;      Locals:         0       0       0       0       0       0       0       0       0       0       0       0       
      +0       0       0       0       0
   394 ;;      Temps:          0       0       0       0       0       0       0       0       0       0       0       0       
      +0       0       0       0       0
   395 ;;      Totals:         0       0       0       0       0       0       0       0       0       0       0       0       
      +0       0       0       0       0
   396 ;;Total ram usage:        0 bytes
   397 ;; Hardware stack levels used:    1
   398 ;; Hardware stack levels required when called:    8
   399 ;; This function calls:
   400 ;;		_interrupt_initialize
   401 ;;		_oscillator_initialize
   402 ;;		_pin_manager
   403 ;;		_timer_0_initialize
   404 ;; This function is called by:
   405 ;;		_main
   406 ;; This function uses a non-reentrant model
   407 ;;
   408                           
   409                           	psect	text1
   410  001248                     __ptext1:
   411                           	opt callstack 0
   412  001248                     _system_initialize:
   413                           	opt callstack 22
   414  001248                     
   415                           ;setup_basic.c: 4:     pin_manager();
   416  001248  EC2D  F009         	call	_pin_manager	;wreg free
   417                           
   418                           ;setup_basic.c: 5:     oscillator_initialize();
   419  00124C  EC3F  F009         	call	_oscillator_initialize	;wreg free
   420  001250                     
   421                           ;setup_basic.c: 6:     interrupt_initialize();
   422  001250  EC44  F009         	call	_interrupt_initialize	;wreg free
   423  001254                     
   424                           ;setup_basic.c: 7:     timer_0_initialize();
   425  001254  ECDA  F008         	call	_timer_0_initialize	;wreg free
   426  001258  0012               	return		;funcret
   427  00125A                     __end_of_system_initialize:
   428                           	opt callstack 0
   429                           
   430 ;; *************** function _timer_0_initialize *****************
   431 ;; Defined at:
   432 ;;		line 32 in file "setup_basic.c"
   433 ;; Parameters:    Size  Location     Type
   434 ;;		None
   435 ;; Auto vars:     Size  Location     Type
   436 ;;		None
   437 ;; Return value:  Size  Location     Type
   438 ;;                  1    wreg      void 
   439 ;; Registers used:
   440 ;;		wreg, status,2
   441 ;; Tracked objects:
   442 ;;		On entry : 0/0
   443 ;;		On exit  : 0/0
   444 ;;		Unchanged: 0/0
   445 ;; Data sizes:     COMRAM   BANK0   BANK1   BANK2   BANK3   BANK4   BANK5   BANK6   BANK7   BANK8   BANK9  BANK10  BANK1
      +1  BANK12  BANK13  BANK14  BANK15
   446 ;;      Params:         0       0       0       0       0       0       0       0       0       0       0       0       
      +0       0       0       0       0
   447 ;;      Locals:         0       0       0       0       0       0       0       0       0       0       0       0       
      +0       0       0       0       0
   448 ;;      Temps:          0       0       0       0       0       0       0       0       0       0       0       0       
      +0       0       0       0       0
   449 ;;      Totals:         0       0       0       0       0       0       0       0       0       0       0       0       
      +0       0       0       0       0
   450 ;;Total ram usage:        0 bytes
   451 ;; Hardware stack levels used:    1
   452 ;; Hardware stack levels required when called:    7
   453 ;; This function calls:
   454 ;;		Nothing
   455 ;; This function is called by:
   456 ;;		_system_initialize
   457 ;; This function uses a non-reentrant model
   458 ;;
   459                           
   460                           	psect	text2
   461  0011B4                     __ptext2:
   462                           	opt callstack 0
   463  0011B4                     _timer_0_initialize:
   464                           	opt callstack 22
   465  0011B4                     
   466                           ;setup_basic.c: 33:     T0CON = 0b00001000;
   467  0011B4  0E08               	movlw	8
   468  0011B6  6ED5               	movwf	213,c	;volatile
   469                           
   470                           ;setup_basic.c: 34:     TMR0H = 0x9E;
   471  0011B8  0E9E               	movlw	158
   472  0011BA  6ED7               	movwf	215,c	;volatile
   473                           
   474                           ;setup_basic.c: 35:     TMR0L = 0x58;
   475  0011BC  0E58               	movlw	88
   476  0011BE  6ED6               	movwf	214,c	;volatile
   477  0011C0                     
   478                           ;setup_basic.c: 37:     timer0ReloadVal = TMR0;
   479  0011C0  CFD6 F033          	movff	4054,_timer0ReloadVal	;volatile
   480  0011C4  CFD7 F034          	movff	4055,_timer0ReloadVal+1	;volatile
   481  0011C8                     
   482                           ;setup_basic.c: 39:     INTCONbits.TMR0IF = 0;
   483  0011C8  94F2               	bcf	242,2,c	;volatile
   484  0011CA                     
   485                           ;setup_basic.c: 40:     INTCONbits.TMR0IE = 1;
   486  0011CA  8AF2               	bsf	242,5,c	;volatile
   487  0011CC                     
   488                           ;setup_basic.c: 41:     T0CONbits.TMR0ON = 1;
   489  0011CC  8ED5               	bsf	213,7,c	;volatile
   490  0011CE  0012               	return		;funcret
   491  0011D0                     __end_of_timer_0_initialize:
   492                           	opt callstack 0
   493                           
   494 ;; *************** function _pin_manager *****************
   495 ;; Defined at:
   496 ;;		line 10 in file "setup_basic.c"
   497 ;; Parameters:    Size  Location     Type
   498 ;;		None
   499 ;; Auto vars:     Size  Location     Type
   500 ;;		None
   501 ;; Return value:  Size  Location     Type
   502 ;;                  1    wreg      void 
   503 ;; Registers used:
   504 ;;		wreg, status,2
   505 ;; Tracked objects:
   506 ;;		On entry : 0/0
   507 ;;		On exit  : 0/0
   508 ;;		Unchanged: 0/0
   509 ;; Data sizes:     COMRAM   BANK0   BANK1   BANK2   BANK3   BANK4   BANK5   BANK6   BANK7   BANK8   BANK9  BANK10  BANK1
      +1  BANK12  BANK13  BANK14  BANK15
   510 ;;      Params:         0       0       0       0       0       0       0       0       0       0       0       0       
      +0       0       0       0       0
   511 ;;      Locals:         0       0       0       0       0       0       0       0       0       0       0       0       
      +0       0       0       0       0
   512 ;;      Temps:          0       0       0       0       0       0       0       0       0       0       0       0       
      +0       0       0       0       0
   513 ;;      Totals:         0       0       0       0       0       0       0       0       0       0       0       0       
      +0       0       0       0       0
   514 ;;Total ram usage:        0 bytes
   515 ;; Hardware stack levels used:    1
   516 ;; Hardware stack levels required when called:    7
   517 ;; This function calls:
   518 ;;		Nothing
   519 ;; This function is called by:
   520 ;;		_system_initialize
   521 ;; This function uses a non-reentrant model
   522 ;;
   523                           
   524                           	psect	text3
   525  00125A                     __ptext3:
   526                           	opt callstack 0
   527  00125A                     _pin_manager:
   528                           	opt callstack 22
   529  00125A                     
   530                           ;setup_basic.c: 11:     TRISD = 0x00;
   531  00125A  0E00               	movlw	0
   532  00125C  6E95               	movwf	149,c	;volatile
   533                           
   534                           ;setup_basic.c: 12:     LATD = 0x00;
   535  00125E  0E00               	movlw	0
   536  001260  6E8C               	movwf	140,c	;volatile
   537  001262                     
   538                           ;setup_basic.c: 14:     TRISBbits.TRISB0 = 1;
   539  001262  8093               	bsf	147,0,c	;volatile
   540  001264                     
   541                           ;setup_basic.c: 16:     TRISAbits.TRISA5 = 1;
   542  001264  8A92               	bsf	146,5,c	;volatile
   543                           
   544                           ;setup_basic.c: 17:     ADCON1 = 0b00001111;
   545  001266  0E0F               	movlw	15
   546  001268  6EC1               	movwf	193,c	;volatile
   547  00126A  0012               	return		;funcret
   548  00126C                     __end_of_pin_manager:
   549                           	opt callstack 0
   550                           
   551 ;; *************** function _oscillator_initialize *****************
   552 ;; Defined at:
   553 ;;		line 20 in file "setup_basic.c"
   554 ;; Parameters:    Size  Location     Type
   555 ;;		None
   556 ;; Auto vars:     Size  Location     Type
   557 ;;		None
   558 ;; Return value:  Size  Location     Type
   559 ;;                  1    wreg      void 
   560 ;; Registers used:
   561 ;;		wreg, status,2
   562 ;; Tracked objects:
   563 ;;		On entry : 0/0
   564 ;;		On exit  : 0/0
   565 ;;		Unchanged: 0/0
   566 ;; Data sizes:     COMRAM   BANK0   BANK1   BANK2   BANK3   BANK4   BANK5   BANK6   BANK7   BANK8   BANK9  BANK10  BANK1
      +1  BANK12  BANK13  BANK14  BANK15
   567 ;;      Params:         0       0       0       0       0       0       0       0       0       0       0       0       
      +0       0       0       0       0
   568 ;;      Locals:         0       0       0       0       0       0       0       0       0       0       0       0       
      +0       0       0       0       0
   569 ;;      Temps:          0       0       0       0       0       0       0       0       0       0       0       0       
      +0       0       0       0       0
   570 ;;      Totals:         0       0       0       0       0       0       0       0       0       0       0       0       
      +0       0       0       0       0
   571 ;;Total ram usage:        0 bytes
   572 ;; Hardware stack levels used:    1
   573 ;; Hardware stack levels required when called:    7
   574 ;; This function calls:
   575 ;;		Nothing
   576 ;; This function is called by:
   577 ;;		_system_initialize
   578 ;; This function uses a non-reentrant model
   579 ;;
   580                           
   581                           	psect	text4
   582  00127E                     __ptext4:
   583                           	opt callstack 0
   584  00127E                     _oscillator_initialize:
   585                           	opt callstack 22
   586  00127E                     
   587                           ;setup_basic.c: 21:     OSCCON = 0b01110000;
   588  00127E  0E70               	movlw	112
   589  001280  6ED3               	movwf	211,c	;volatile
   590                           
   591                           ;setup_basic.c: 22:     OSCTUNE = 0b01000000;
   592  001282  0E40               	movlw	64
   593  001284  6E9B               	movwf	155,c	;volatile
   594  001286  0012               	return		;funcret
   595  001288                     __end_of_oscillator_initialize:
   596                           	opt callstack 0
   597                           
   598 ;; *************** function _interrupt_initialize *****************
   599 ;; Defined at:
   600 ;;		line 25 in file "setup_basic.c"
   601 ;; Parameters:    Size  Location     Type
   602 ;;		None
   603 ;; Auto vars:     Size  Location     Type
   604 ;;		None
   605 ;; Return value:  Size  Location     Type
   606 ;;                  1    wreg      void 
   607 ;; Registers used:
   608 ;;		None
   609 ;; Tracked objects:
   610 ;;		On entry : 0/0
   611 ;;		On exit  : 0/0
   612 ;;		Unchanged: 0/0
   613 ;; Data sizes:     COMRAM   BANK0   BANK1   BANK2   BANK3   BANK4   BANK5   BANK6   BANK7   BANK8   BANK9  BANK10  BANK1
      +1  BANK12  BANK13  BANK14  BANK15
   614 ;;      Params:         0       0       0       0       0       0       0       0       0       0       0       0       
      +0       0       0       0       0
   615 ;;      Locals:         0       0       0       0       0       0       0       0       0       0       0       0       
      +0       0       0       0       0
   616 ;;      Temps:          0       0       0       0       0       0       0       0       0       0       0       0       
      +0       0       0       0       0
   617 ;;      Totals:         0       0       0       0       0       0       0       0       0       0       0       0       
      +0       0       0       0       0
   618 ;;Total ram usage:        0 bytes
   619 ;; Hardware stack levels used:    1
   620 ;; Hardware stack levels required when called:    7
   621 ;; This function calls:
   622 ;;		Nothing
   623 ;; This function is called by:
   624 ;;		_system_initialize
   625 ;; This function uses a non-reentrant model
   626 ;;
   627                           
   628                           	psect	text5
   629  001288                     __ptext5:
   630                           	opt callstack 0
   631  001288                     _interrupt_initialize:
   632                           	opt callstack 22
   633  001288                     
   634                           ;setup_basic.c: 26:     RCONbits.IPEN = 0;
   635  001288  9ED0               	bcf	208,7,c	;volatile
   636                           
   637                           ;setup_basic.c: 29:     INTCON2bits.TMR0IP = 0;
   638  00128A  94F1               	bcf	241,2,c	;volatile
   639  00128C  0012               	return		;funcret
   640  00128E                     __end_of_interrupt_initialize:
   641                           	opt callstack 0
   642                           
   643 ;; *************** function _LCDInit *****************
   644 ;; Defined at:
   645 ;;		line 3 in file "solution_lab03.c"
   646 ;; Parameters:    Size  Location     Type
   647 ;;		None
   648 ;; Auto vars:     Size  Location     Type
   649 ;;		None
   650 ;; Return value:  Size  Location     Type
   651 ;;                  1    wreg      void 
   652 ;; Registers used:
   653 ;;		wreg, status,2, status,0, cstack
   654 ;; Tracked objects:
   655 ;;		On entry : 0/0
   656 ;;		On exit  : 0/0
   657 ;;		Unchanged: 0/0
   658 ;; Data sizes:     COMRAM   BANK0   BANK1   BANK2   BANK3   BANK4   BANK5   BANK6   BANK7   BANK8   BANK9  BANK10  BANK1
      +1  BANK12  BANK13  BANK14  BANK15
   659 ;;      Params:         0       0       0       0       0       0       0       0       0       0       0       0       
      +0       0       0       0       0
   660 ;;      Locals:         0       0       0       0       0       0       0       0       0       0       0       0       
      +0       0       0       0       0
   661 ;;      Temps:          1       0       0       0       0       0       0       0       0       0       0       0       
      +0       0       0       0       0
   662 ;;      Totals:         1       0       0       0       0       0       0       0       0       0       0       0       
      +0       0       0       0       0
   663 ;;Total ram usage:        1 bytes
   664 ;; Hardware stack levels used:    1
   665 ;; Hardware stack levels required when called:   10
   666 ;; This function calls:
   667 ;;		_InitBBSPI
   668 ;;		_LCDPutInst
   669 ;;		_Port_BBSPIInit
   670 ;;		_WritePort_BBSPI
   671 ;; This function is called by:
   672 ;;		_main
   673 ;; This function uses a non-reentrant model
   674 ;;
   675                           
   676                           	psect	text6
   677  001124                     __ptext6:
   678                           	opt callstack 0
   679  001124                     _LCDInit:
   680                           	opt callstack 20
   681  001124                     
   682                           ;solution_lab03.c: 4:     InitBBSPI();
   683  001124  EC36  F009         	call	_InitBBSPI	;wreg free
   684  001128                     
   685                           ;solution_lab03.c: 5:     TRISFbits.TRISF6 = 0;
   686  001128  9C97               	bcf	151,6,c	;volatile
   687  00112A                     
   688                           ;solution_lab03.c: 6:     LATFbits.LATF6 = 0;
   689  00112A  9C8E               	bcf	142,6,c	;volatile
   690  00112C                     
   691                           ;solution_lab03.c: 7:     _delay((unsigned long)((5)*(10000000/4000.0)));
   692  00112C  0E11               	movlw	17
   693  00112E  6E32               	movwf	??_LCDInit^0,c
   694  001130  0E3A               	movlw	58
   695  001132                     u1597:
   696  001132  2EE8               	decfsz	wreg,f,c
   697  001134  D7FE               	bra	u1597
   698  001136  2E32               	decfsz	??_LCDInit^0,f,c
   699  001138  D7FC               	bra	u1597
   700  00113A  D000               	nop2	
   701  00113C                     
   702                           ;solution_lab03.c: 8:     LATFbits.LATF6 = 1;
   703  00113C  8C8E               	bsf	142,6,c	;volatile
   704  00113E                     
   705                           ;solution_lab03.c: 9:     Port_BBSPIInit (0x00);
   706  00113E  0E00               	movlw	0
   707  001140  ECE8  F008         	call	_Port_BBSPIInit
   708  001144                     
   709                           ;solution_lab03.c: 10:     Port_BBSPIInit (0x01);
   710  001144  0E01               	movlw	1
   711  001146  ECE8  F008         	call	_Port_BBSPIInit
   712  00114A                     
   713                           ;solution_lab03.c: 11:     WritePort_BBSPI (0x12, 0);
   714  00114A  0E00               	movlw	0
   715  00114C  6E2E               	movwf	WritePort_BBSPI@a^0,c
   716  00114E  0E12               	movlw	18
   717  001150  ECF5  F008         	call	_WritePort_BBSPI
   718  001154                     
   719                           ;solution_lab03.c: 12:     _delay((unsigned long)((10)*(10000000/4000.0)));
   720  001154  0E21               	movlw	33
   721  001156  6E32               	movwf	??_LCDInit^0,c
   722  001158  0E76               	movlw	118
   723  00115A                     u1607:
   724  00115A  2EE8               	decfsz	wreg,f,c
   725  00115C  D7FE               	bra	u1607
   726  00115E  2E32               	decfsz	??_LCDInit^0,f,c
   727  001160  D7FC               	bra	u1607
   728  001162  D000               	nop2	
   729  001164                     
   730                           ;solution_lab03.c: 13:     LCDPutInst(0x32);
   731  001164  0E32               	movlw	50
   732  001166  ECF9  F007         	call	_LCDPutInst
   733  00116A                     
   734                           ;solution_lab03.c: 14:     LCDPutInst(0x3C);
   735  00116A  0E3C               	movlw	60
   736  00116C  ECF9  F007         	call	_LCDPutInst
   737  001170                     
   738                           ;solution_lab03.c: 15:     LCDPutInst(0x0C);
   739  001170  0E0C               	movlw	12
   740  001172  ECF9  F007         	call	_LCDPutInst
   741  001176                     
   742                           ;solution_lab03.c: 16:     LCDPutInst(0x01);
   743  001176  0E01               	movlw	1
   744  001178  ECF9  F007         	call	_LCDPutInst
   745  00117C                     
   746                           ;solution_lab03.c: 17:     LCDPutInst(0x06);
   747  00117C  0E06               	movlw	6
   748  00117E  ECF9  F007         	call	_LCDPutInst
   749  001182  0012               	return		;funcret
   750  001184                     __end_of_LCDInit:
   751                           	opt callstack 0
   752                           
   753 ;; *************** function _Port_BBSPIInit *****************
   754 ;; Defined at:
   755 ;;		line 34 in file "solution_lab03.c"
   756 ;; Parameters:    Size  Location     Type
   757 ;;  port_dir        1    wreg     unsigned char 
   758 ;; Auto vars:     Size  Location     Type
   759 ;;  port_dir        1   15[COMRAM] unsigned char 
   760 ;; Return value:  Size  Location     Type
   761 ;;                  1    wreg      void 
   762 ;; Registers used:
   763 ;;		wreg, status,2, status,0, cstack
   764 ;; Tracked objects:
   765 ;;		On entry : 0/0
   766 ;;		On exit  : 0/0
   767 ;;		Unchanged: 0/0
   768 ;; Data sizes:     COMRAM   BANK0   BANK1   BANK2   BANK3   BANK4   BANK5   BANK6   BANK7   BANK8   BANK9  BANK10  BANK1
      +1  BANK12  BANK13  BANK14  BANK15
   769 ;;      Params:         0       0       0       0       0       0       0       0       0       0       0       0       
      +0       0       0       0       0
   770 ;;      Locals:         1       0       0       0       0       0       0       0       0       0       0       0       
      +0       0       0       0       0
   771 ;;      Temps:          0       0       0       0       0       0       0       0       0       0       0       0       
      +0       0       0       0       0
   772 ;;      Totals:         1       0       0       0       0       0       0       0       0       0       0       0       
      +0       0       0       0       0
   773 ;;Total ram usage:        1 bytes
   774 ;; Hardware stack levels used:    1
   775 ;; Hardware stack levels required when called:    8
   776 ;; This function calls:
   777 ;;		_SendByteBBSPI
   778 ;; This function is called by:
   779 ;;		_LCDInit
   780 ;; This function uses a non-reentrant model
   781 ;;
   782                           
   783                           	psect	text7
   784  0011D0                     __ptext7:
   785                           	opt callstack 0
   786  0011D0                     _Port_BBSPIInit:
   787                           	opt callstack 21
   788                           
   789                           ;incstack = 0
   790                           ;Port_BBSPIInit@port_dir stored from wreg
   791  0011D0  6E2E               	movwf	Port_BBSPIInit@port_dir^0,c
   792  0011D2                     
   793                           ;solution_lab03.c: 35:     LATAbits.LATA2 = 0;
   794  0011D2  9489               	bcf	137,2,c	;volatile
   795  0011D4                     
   796                           ;solution_lab03.c: 36:     SendByteBBSPI(0x40);
   797  0011D4  0E40               	movlw	64
   798  0011D6  EC89  F007         	call	_SendByteBBSPI
   799                           
   800                           ;solution_lab03.c: 37:     SendByteBBSPI(port_dir);
   801  0011DA  502E               	movf	Port_BBSPIInit@port_dir^0,w,c
   802  0011DC  EC89  F007         	call	_SendByteBBSPI
   803                           
   804                           ;solution_lab03.c: 38:     SendByteBBSPI(0x00);
   805  0011E0  0E00               	movlw	0
   806  0011E2  EC89  F007         	call	_SendByteBBSPI
   807  0011E6                     
   808                           ;solution_lab03.c: 39:     LATAbits.LATA2 = 1;
   809  0011E6  8489               	bsf	137,2,c	;volatile
   810  0011E8  0012               	return		;funcret
   811  0011EA                     __end_of_Port_BBSPIInit:
   812                           	opt callstack 0
   813                           
   814 ;; *************** function _LCDPutInst *****************
   815 ;; Defined at:
   816 ;;		line 74 in file "solution_lab03.c"
   817 ;; Parameters:    Size  Location     Type
   818 ;;  ch              1    wreg     unsigned char 
   819 ;; Auto vars:     Size  Location     Type
   820 ;;  ch              1   18[COMRAM] unsigned char 
   821 ;; Return value:  Size  Location     Type
   822 ;;                  1    wreg      void 
   823 ;; Registers used:
   824 ;;		wreg, status,2, status,0, cstack
   825 ;; Tracked objects:
   826 ;;		On entry : 0/0
   827 ;;		On exit  : 0/0
   828 ;;		Unchanged: 0/0
   829 ;; Data sizes:     COMRAM   BANK0   BANK1   BANK2   BANK3   BANK4   BANK5   BANK6   BANK7   BANK8   BANK9  BANK10  BANK1
      +1  BANK12  BANK13  BANK14  BANK15
   830 ;;      Params:         0       0       0       0       0       0       0       0       0       0       0       0       
      +0       0       0       0       0
   831 ;;      Locals:         1       0       0       0       0       0       0       0       0       0       0       0       
      +0       0       0       0       0
   832 ;;      Temps:          1       0       0       0       0       0       0       0       0       0       0       0       
      +0       0       0       0       0
   833 ;;      Totals:         2       0       0       0       0       0       0       0       0       0       0       0       
      +0       0       0       0       0
   834 ;;Total ram usage:        2 bytes
   835 ;; Hardware stack levels used:    1
   836 ;; Hardware stack levels required when called:    9
   837 ;; This function calls:
   838 ;;		_WritePort_BBSPI
   839 ;; This function is called by:
   840 ;;		_LCDInit
   841 ;; This function uses a non-reentrant model
   842 ;;
   843                           
   844                           	psect	text8
   845  000FF2                     __ptext8:
   846                           	opt callstack 0
   847  000FF2                     _LCDPutInst:
   848                           	opt callstack 20
   849                           
   850                           ;incstack = 0
   851                           ;LCDPutInst@ch stored from wreg
   852  000FF2  6E31               	movwf	LCDPutInst@ch^0,c
   853  000FF4                     
   854                           ;solution_lab03.c: 75:     _delay((unsigned long)((2)*(10000000/4000.0)));
   855  000FF4  0E07               	movlw	7
   856  000FF6  6E30               	movwf	??_LCDPutInst^0,c
   857  000FF8  0E7D               	movlw	125
   858  000FFA                     u1617:
   859  000FFA  2EE8               	decfsz	wreg,f,c
   860  000FFC  D7FE               	bra	u1617
   861  000FFE  2E30               	decfsz	??_LCDPutInst^0,f,c
   862  001000  D7FC               	bra	u1617
   863  001002  F000               	nop	
   864  001004                     
   865                           ;solution_lab03.c: 76:     WritePort_BBSPI (0x12, 0x00);
   866  001004  0E00               	movlw	0
   867  001006  6E2E               	movwf	WritePort_BBSPI@a^0,c
   868  001008  0E12               	movlw	18
   869  00100A  ECF5  F008         	call	_WritePort_BBSPI
   870  00100E                     
   871                           ;solution_lab03.c: 77:     _delay((unsigned long)((1)*(10000000/4000.0)));
   872  00100E  0E04               	movlw	4
   873  001010  6E30               	movwf	??_LCDPutInst^0,c
   874  001012  0E3E               	movlw	62
   875  001014                     u1627:
   876  001014  2EE8               	decfsz	wreg,f,c
   877  001016  D7FE               	bra	u1627
   878  001018  2E30               	decfsz	??_LCDPutInst^0,f,c
   879  00101A  D7FC               	bra	u1627
   880  00101C                     
   881                           ;solution_lab03.c: 78:     WritePort_BBSPI (0x13, ch);
   882  00101C  C031  F02E         	movff	LCDPutInst@ch,WritePort_BBSPI@a
   883  001020  0E13               	movlw	19
   884  001022  ECF5  F008         	call	_WritePort_BBSPI
   885  001026                     
   886                           ;solution_lab03.c: 79:     _delay((unsigned long)((1)*(10000000/4000.0)));
   887  001026  0E04               	movlw	4
   888  001028  6E30               	movwf	??_LCDPutInst^0,c
   889  00102A  0E3E               	movlw	62
   890  00102C                     u1637:
   891  00102C  2EE8               	decfsz	wreg,f,c
   892  00102E  D7FE               	bra	u1637
   893  001030  2E30               	decfsz	??_LCDPutInst^0,f,c
   894  001032  D7FC               	bra	u1637
   895  001034                     
   896                           ;solution_lab03.c: 80:     WritePort_BBSPI (0x12,0x40);
   897  001034  0E40               	movlw	64
   898  001036  6E2E               	movwf	WritePort_BBSPI@a^0,c
   899  001038  0E12               	movlw	18
   900  00103A  ECF5  F008         	call	_WritePort_BBSPI
   901  00103E                     
   902                           ;solution_lab03.c: 81:     _delay((unsigned long)((1)*(10000000/4000.0)));
   903  00103E  0E04               	movlw	4
   904  001040  6E30               	movwf	??_LCDPutInst^0,c
   905  001042  0E3E               	movlw	62
   906  001044                     u1647:
   907  001044  2EE8               	decfsz	wreg,f,c
   908  001046  D7FE               	bra	u1647
   909  001048  2E30               	decfsz	??_LCDPutInst^0,f,c
   910  00104A  D7FC               	bra	u1647
   911  00104C                     
   912                           ;solution_lab03.c: 82:     WritePort_BBSPI (0x12, 0x00);
   913  00104C  0E00               	movlw	0
   914  00104E  6E2E               	movwf	WritePort_BBSPI@a^0,c
   915  001050  0E12               	movlw	18
   916  001052  ECF5  F008         	call	_WritePort_BBSPI
   917  001056  0012               	return		;funcret
   918  001058                     __end_of_LCDPutInst:
   919                           	opt callstack 0
   920                           
   921 ;; *************** function _WritePort_BBSPI *****************
   922 ;; Defined at:
   923 ;;		line 66 in file "solution_lab03.c"
   924 ;; Parameters:    Size  Location     Type
   925 ;;  port_add        1    wreg     unsigned char 
   926 ;;  a               1   15[COMRAM] unsigned char 
   927 ;; Auto vars:     Size  Location     Type
   928 ;;  port_add        1   16[COMRAM] unsigned char 
   929 ;; Return value:  Size  Location     Type
   930 ;;                  1    wreg      void 
   931 ;; Registers used:
   932 ;;		wreg, status,2, status,0, cstack
   933 ;; Tracked objects:
   934 ;;		On entry : 0/0
   935 ;;		On exit  : 0/0
   936 ;;		Unchanged: 0/0
   937 ;; Data sizes:     COMRAM   BANK0   BANK1   BANK2   BANK3   BANK4   BANK5   BANK6   BANK7   BANK8   BANK9  BANK10  BANK1
      +1  BANK12  BANK13  BANK14  BANK15
   938 ;;      Params:         1       0       0       0       0       0       0       0       0       0       0       0       
      +0       0       0       0       0
   939 ;;      Locals:         1       0       0       0       0       0       0       0       0       0       0       0       
      +0       0       0       0       0
   940 ;;      Temps:          0       0       0       0       0       0       0       0       0       0       0       0       
      +0       0       0       0       0
   941 ;;      Totals:         2       0       0       0       0       0       0       0       0       0       0       0       
      +0       0       0       0       0
   942 ;;Total ram usage:        2 bytes
   943 ;; Hardware stack levels used:    1
   944 ;; Hardware stack levels required when called:    8
   945 ;; This function calls:
   946 ;;		_SendByteBBSPI
   947 ;; This function is called by:
   948 ;;		_LCDInit
   949 ;;		_LCDPutInst
   950 ;; This function uses a non-reentrant model
   951 ;;
   952                           
   953                           	psect	text9
   954  0011EA                     __ptext9:
   955                           	opt callstack 0
   956  0011EA                     _WritePort_BBSPI:
   957                           	opt callstack 21
   958                           
   959                           ;incstack = 0
   960                           ;WritePort_BBSPI@port_add stored from wreg
   961  0011EA  6E2F               	movwf	WritePort_BBSPI@port_add^0,c
   962  0011EC                     
   963                           ;solution_lab03.c: 67:     LATAbits.LATA2 = 0;
   964  0011EC  9489               	bcf	137,2,c	;volatile
   965  0011EE                     
   966                           ;solution_lab03.c: 68:     SendByteBBSPI(0x40);
   967  0011EE  0E40               	movlw	64
   968  0011F0  EC89  F007         	call	_SendByteBBSPI
   969                           
   970                           ;solution_lab03.c: 69:     SendByteBBSPI(port_add);
   971  0011F4  502F               	movf	WritePort_BBSPI@port_add^0,w,c
   972  0011F6  EC89  F007         	call	_SendByteBBSPI
   973                           
   974                           ;solution_lab03.c: 70:     SendByteBBSPI(a);
   975  0011FA  502E               	movf	WritePort_BBSPI@a^0,w,c
   976  0011FC  EC89  F007         	call	_SendByteBBSPI
   977  001200                     
   978                           ;solution_lab03.c: 71:     LATAbits.LATA2 = 1;
   979  001200  8489               	bsf	137,2,c	;volatile
   980  001202  0012               	return		;funcret
   981  001204                     __end_of_WritePort_BBSPI:
   982                           	opt callstack 0
   983                           
   984 ;; *************** function _SendByteBBSPI *****************
   985 ;; Defined at:
   986 ;;		line 42 in file "solution_lab03.c"
   987 ;; Parameters:    Size  Location     Type
   988 ;;  output          1    wreg     unsigned char 
   989 ;; Auto vars:     Size  Location     Type
   990 ;;  output          1   12[COMRAM] unsigned char 
   991 ;;  input           1   14[COMRAM] unsigned char 
   992 ;;  bitcount        1   13[COMRAM] unsigned char 
   993 ;; Return value:  Size  Location     Type
   994 ;;                  1    wreg      void 
   995 ;; Registers used:
   996 ;;		wreg, status,2, status,0
   997 ;; Tracked objects:
   998 ;;		On entry : 0/0
   999 ;;		On exit  : 0/0
  1000 ;;		Unchanged: 0/0
  1001 ;; Data sizes:     COMRAM   BANK0   BANK1   BANK2   BANK3   BANK4   BANK5   BANK6   BANK7   BANK8   BANK9  BANK10  BANK1
      +1  BANK12  BANK13  BANK14  BANK15
  1002 ;;      Params:         0       0       0       0       0       0       0       0       0       0       0       0       
      +0       0       0       0       0
  1003 ;;      Locals:         3       0       0       0       0       0       0       0       0       0       0       0       
      +0       0       0       0       0
  1004 ;;      Temps:          0       0       0       0       0       0       0       0       0       0       0       0       
      +0       0       0       0       0
  1005 ;;      Totals:         3       0       0       0       0       0       0       0       0       0       0       0       
      +0       0       0       0       0
  1006 ;;Total ram usage:        3 bytes
  1007 ;; Hardware stack levels used:    1
  1008 ;; Hardware stack levels required when called:    7
  1009 ;; This function calls:
  1010 ;;		Nothing
  1011 ;; This function is called by:
  1012 ;;		_Port_BBSPIInit
  1013 ;;		_WritePort_BBSPI
  1014 ;; This function uses a non-reentrant model
  1015 ;;
  1016                           
  1017                           	psect	text10
  1018  000F12                     __ptext10:
  1019                           	opt callstack 0
  1020  000F12                     _SendByteBBSPI:
  1021                           	opt callstack 21
  1022                           
  1023                           ;incstack = 0
  1024                           ;SendByteBBSPI@output stored from wreg
  1025  000F12  6E2B               	movwf	SendByteBBSPI@output^0,c
  1026  000F14                     
  1027                           ;solution_lab03.c: 43:     unsigned char bitcount;;solution_lab03.c: 44:     unsigned ch
      +                          ar input = output;
  1028  000F14  C02B  F02D         	movff	SendByteBBSPI@output,SendByteBBSPI@input
  1029  000F18                     
  1030                           ;solution_lab03.c: 46:     for(bitcount=0;bitcount<8;bitcount++)
  1031  000F18  0E00               	movlw	0
  1032  000F1A  6E2C               	movwf	SendByteBBSPI@bitcount^0,c
  1033  000F1C                     l263:
  1034                           
  1035                           ;solution_lab03.c: 47:     {;solution_lab03.c: 49:         if(output & 0x80)
  1036  000F1C  AE2B               	btfss	SendByteBBSPI@output^0,7,c
  1037  000F1E  EF93  F007         	goto	u41
  1038  000F22  EF95  F007         	goto	u40
  1039  000F26                     u41:
  1040  000F26  EF98  F007         	goto	l265
  1041  000F2A                     u40:
  1042  000F2A                     
  1043                           ;solution_lab03.c: 50:             LATCbits.LATC5 = 1;
  1044  000F2A  8A8B               	bsf	139,5,c	;volatile
  1045  000F2C  EF99  F007         	goto	l266
  1046  000F30                     l265:
  1047                           
  1048                           ;solution_lab03.c: 52:             LATCbits.LATC5 = 0;
  1049  000F30  9A8B               	bcf	139,5,c	;volatile
  1050  000F32                     l266:
  1051                           
  1052                           ;solution_lab03.c: 54:         if (LATCbits.LATC4)
  1053  000F32  A88B               	btfss	139,4,c	;volatile
  1054  000F34  EF9E  F007         	goto	u51
  1055  000F38  EFA0  F007         	goto	u50
  1056  000F3C                     u51:
  1057  000F3C  EFA4  F007         	goto	l1193
  1058  000F40                     u50:
  1059  000F40                     
  1060                           ;solution_lab03.c: 55:             input = (input << 1) | 0x1;
  1061  000F40  80D8               	bsf	status,0,c
  1062  000F42  362D               	rlcf	SendByteBBSPI@input^0,f,c
  1063  000F44  EFA7  F007         	goto	l1195
  1064  000F48                     l1193:
  1065                           
  1066                           ;solution_lab03.c: 57:             input = input << 1;
  1067  000F48  502D               	movf	SendByteBBSPI@input^0,w,c
  1068  000F4A  242D               	addwf	SendByteBBSPI@input^0,w,c
  1069  000F4C  6E2D               	movwf	SendByteBBSPI@input^0,c
  1070  000F4E                     l1195:
  1071                           
  1072                           ;solution_lab03.c: 58:         LATCbits.LATC3 = 1;
  1073  000F4E  868B               	bsf	139,3,c	;volatile
  1074  000F50                     
  1075                           ;solution_lab03.c: 59:         __nop();__nop();__nop();__nop();__nop();__nop();
  1076  000F50  F000               	nop	
  1077  000F52  F000               	nop	
  1078  000F54  F000               	nop	
  1079  000F56  F000               	nop	
  1080  000F58  F000               	nop	
  1081  000F5A  F000               	nop	
  1082  000F5C                     
  1083                           ;solution_lab03.c: 60:         __nop();__nop();__nop();__nop();__nop();__nop();
  1084  000F5C  F000               	nop	
  1085  000F5E  F000               	nop	
  1086  000F60  F000               	nop	
  1087  000F62  F000               	nop	
  1088  000F64  F000               	nop	
  1089  000F66  F000               	nop	
  1090  000F68                     
  1091                           ;solution_lab03.c: 61:         LATCbits.LATC3 = 0;
  1092  000F68  968B               	bcf	139,3,c	;volatile
  1093                           
  1094                           ;solution_lab03.c: 62:         output <<= 1;
  1095  000F6A  90D8               	bcf	status,0,c
  1096  000F6C  362B               	rlcf	SendByteBBSPI@output^0,f,c
  1097  000F6E                     
  1098                           ;solution_lab03.c: 63:     }
  1099  000F6E  2A2C               	incf	SendByteBBSPI@bitcount^0,f,c
  1100  000F70  0E07               	movlw	7
  1101  000F72  642C               	cpfsgt	SendByteBBSPI@bitcount^0,c
  1102  000F74  EFBE  F007         	goto	u61
  1103  000F78  EFC0  F007         	goto	u60
  1104  000F7C                     u61:
  1105  000F7C  EF8E  F007         	goto	l263
  1106  000F80                     u60:
  1107  000F80  0012               	return		;funcret
  1108  000F82                     __end_of_SendByteBBSPI:
  1109                           	opt callstack 0
  1110                           
  1111 ;; *************** function _InitBBSPI *****************
  1112 ;; Defined at:
  1113 ;;		line 20 in file "solution_lab03.c"
  1114 ;; Parameters:    Size  Location     Type
  1115 ;;		None
  1116 ;; Auto vars:     Size  Location     Type
  1117 ;;		None
  1118 ;; Return value:  Size  Location     Type
  1119 ;;                  1    wreg      void 
  1120 ;; Registers used:
  1121 ;;		None
  1122 ;; Tracked objects:
  1123 ;;		On entry : 0/0
  1124 ;;		On exit  : 0/0
  1125 ;;		Unchanged: 0/0
  1126 ;; Data sizes:     COMRAM   BANK0   BANK1   BANK2   BANK3   BANK4   BANK5   BANK6   BANK7   BANK8   BANK9  BANK10  BANK1
      +1  BANK12  BANK13  BANK14  BANK15
  1127 ;;      Params:         0       0       0       0       0       0       0       0       0       0       0       0       
      +0       0       0       0       0
  1128 ;;      Locals:         0       0       0       0       0       0       0       0       0       0       0       0       
      +0       0       0       0       0
  1129 ;;      Temps:          0       0       0       0       0       0       0       0       0       0       0       0       
      +0       0       0       0       0
  1130 ;;      Totals:         0       0       0       0       0       0       0       0       0       0       0       0       
      +0       0       0       0       0
  1131 ;;Total ram usage:        0 bytes
  1132 ;; Hardware stack levels used:    1
  1133 ;; Hardware stack levels required when called:    7
  1134 ;; This function calls:
  1135 ;;		Nothing
  1136 ;; This function is called by:
  1137 ;;		_LCDInit
  1138 ;; This function uses a non-reentrant model
  1139 ;;
  1140                           
  1141                           	psect	text11
  1142  00126C                     __ptext11:
  1143                           	opt callstack 0
  1144  00126C                     _InitBBSPI:
  1145                           	opt callstack 22
  1146  00126C                     
  1147                           ;solution_lab03.c: 21:     TRISAbits.TRISA2 = 0;
  1148  00126C  9492               	bcf	146,2,c	;volatile
  1149                           
  1150                           ;solution_lab03.c: 22:     LATAbits.LATA2 = 1;
  1151  00126E  8489               	bsf	137,2,c	;volatile
  1152                           
  1153                           ;solution_lab03.c: 24:     TRISCbits.TRISC4 = 1;
  1154  001270  8894               	bsf	148,4,c	;volatile
  1155                           
  1156                           ;solution_lab03.c: 25:     LATCbits.LATC4 = 1;
  1157  001272  888B               	bsf	139,4,c	;volatile
  1158                           
  1159                           ;solution_lab03.c: 27:     TRISCbits.TRISC5 = 0;
  1160  001274  9A94               	bcf	148,5,c	;volatile
  1161                           
  1162                           ;solution_lab03.c: 28:     LATCbits.LATC5 = 0;
  1163  001276  9A8B               	bcf	139,5,c	;volatile
  1164                           
  1165                           ;solution_lab03.c: 30:     TRISCbits.TRISC3 = 0;
  1166  001278  9694               	bcf	148,3,c	;volatile
  1167                           
  1168                           ;solution_lab03.c: 31:     LATCbits.LATC3 = 0;
  1169  00127A  968B               	bcf	139,3,c	;volatile
  1170  00127C  0012               	return		;funcret
  1171  00127E                     __end_of_InitBBSPI:
  1172                           	opt callstack 0
  1173                           
  1174 ;; *************** function _function_interrupt *****************
  1175 ;; Defined at:
  1176 ;;		line 44 in file "setup_basic.c"
  1177 ;; Parameters:    Size  Location     Type
  1178 ;;		None
  1179 ;; Auto vars:     Size  Location     Type
  1180 ;;		None
  1181 ;; Return value:  Size  Location     Type
  1182 ;;                  1    wreg      void 
  1183 ;; Registers used:
  1184 ;;		wreg, status,2, status,0, cstack
  1185 ;; Tracked objects:
  1186 ;;		On entry : 0/0
  1187 ;;		On exit  : 0/0
  1188 ;;		Unchanged: 0/0
  1189 ;; Data sizes:     COMRAM   BANK0   BANK1   BANK2   BANK3   BANK4   BANK5   BANK6   BANK7   BANK8   BANK9  BANK10  BANK1
      +1  BANK12  BANK13  BANK14  BANK15
  1190 ;;      Params:         0       0       0       0       0       0       0       0       0       0       0       0       
      +0       0       0       0       0
  1191 ;;      Locals:         0       0       0       0       0       0       0       0       0       0       0       0       
      +0       0       0       0       0
  1192 ;;      Temps:          0       0       0       0       0       0       0       0       0       0       0       0       
      +0       0       0       0       0
  1193 ;;      Totals:         0       0       0       0       0       0       0       0       0       0       0       0       
      +0       0       0       0       0
  1194 ;;Total ram usage:        0 bytes
  1195 ;; Hardware stack levels used:    1
  1196 ;; Hardware stack levels required when called:    6
  1197 ;; This function calls:
  1198 ;;		_FSM_of_me
  1199 ;; This function is called by:
  1200 ;;		Interrupt level 2
  1201 ;; This function uses a non-reentrant model
  1202 ;;
  1203                           
  1204                           	psect	intcode
  1205  000008                     __pintcode:
  1206                           	opt callstack 0
  1207  000008                     _function_interrupt:
  1208                           	opt callstack 20
  1209                           
  1210                           ;incstack = 0
  1211  000008  8235               	bsf	int$flags,1,c	;set compiler interrupt flag (level 2)
  1212  00000A  EDC2  F008         	call	int_func,f	;refresh shadow registers
  1213                           
  1214                           	psect	intcode_body
  1215  001184                     __pintcode_body:
  1216                           	opt callstack 20
  1217  001184                     int_func:
  1218                           	opt callstack 20
  1219  001184  0006               	pop		; remove dummy address from shadow register refresh
  1220  001186                     
  1221                           ;setup_basic.c: 45:     if ((INTCONbits.TMR0IE == 1) &&(INTCONbits.TMR0IF == 1)){
  1222  001186  AAF2               	btfss	242,5,c	;volatile
  1223  001188  EFC8  F008         	goto	i2u156_41
  1224  00118C  EFCA  F008         	goto	i2u156_40
  1225  001190                     i2u156_41:
  1226  001190  EFD8  F008         	goto	i2l175
  1227  001194                     i2u156_40:
  1228  001194  A4F2               	btfss	242,2,c	;volatile
  1229  001196  EFCF  F008         	goto	i2u157_41
  1230  00119A  EFD1  F008         	goto	i2u157_40
  1231  00119E                     i2u157_41:
  1232  00119E  EFD8  F008         	goto	i2l175
  1233  0011A2                     i2u157_40:
  1234  0011A2                     
  1235                           ;setup_basic.c: 46:         INTCONbits.TMR0IF = 0;
  1236  0011A2  94F2               	bcf	242,2,c	;volatile
  1237  0011A4                     
  1238                           ;setup_basic.c: 47:         TMR0H = (timer0ReloadVal >> 8);
  1239  0011A4  5034               	movf	(_timer0ReloadVal+1)^0,w,c	;volatile
  1240  0011A6  6ED7               	movwf	215,c	;volatile
  1241  0011A8                     
  1242                           ;setup_basic.c: 48:         TMR0L = (unsigned char) timer0ReloadVal;
  1243  0011A8  C033  FFD6         	movff	_timer0ReloadVal,4054	;volatile
  1244  0011AC                     
  1245                           ;setup_basic.c: 89:         FSM_of_me();
  1246  0011AC  EC42  F004         	call	_FSM_of_me	;wreg free
  1247  0011B0                     i2l175:
  1248  0011B0  9235               	bcf	int$flags,1,c	;clear compiler interrupt flag (level 2)
  1249  0011B2  0011               	retfie		f
  1250  0011B4                     __end_of_function_interrupt:
  1251                           	opt callstack 0
  1252                           
  1253 ;; *************** function _FSM_of_me *****************
  1254 ;; Defined at:
  1255 ;;		line 327 in file "solution02_lab03.c"
  1256 ;; Parameters:    Size  Location     Type
  1257 ;;		None
  1258 ;; Auto vars:     Size  Location     Type
  1259 ;;		None
  1260 ;; Return value:  Size  Location     Type
  1261 ;;                  1    wreg      void 
  1262 ;; Registers used:
  1263 ;;		wreg, status,2, status,0, cstack
  1264 ;; Tracked objects:
  1265 ;;		On entry : 0/0
  1266 ;;		On exit  : 0/0
  1267 ;;		Unchanged: 0/0
  1268 ;; Data sizes:     COMRAM   BANK0   BANK1   BANK2   BANK3   BANK4   BANK5   BANK6   BANK7   BANK8   BANK9  BANK10  BANK1
      +1  BANK12  BANK13  BANK14  BANK15
  1269 ;;      Params:         0       0       0       0       0       0       0       0       0       0       0       0       
      +0       0       0       0       0
  1270 ;;      Locals:         0       0       0       0       0       0       0       0       0       0       0       0       
      +0       0       0       0       0
  1271 ;;      Temps:          2       0       0       0       0       0       0       0       0       0       0       0       
      +0       0       0       0       0
  1272 ;;      Totals:         2       0       0       0       0       0       0       0       0       0       0       0       
      +0       0       0       0       0
  1273 ;;Total ram usage:        2 bytes
  1274 ;; Hardware stack levels used:    1
  1275 ;; Hardware stack levels required when called:    5
  1276 ;; This function calls:
  1277 ;;		_display_normal_clock
  1278 ;;		_modify_hour
  1279 ;;		_modify_min
  1280 ;;		_modify_sec
  1281 ;;		_normal_clock_run
  1282 ;;		_readButton_RA5
  1283 ;;		_stopwatch_mode
  1284 ;; This function is called by:
  1285 ;;		_function_interrupt
  1286 ;; This function uses a non-reentrant model
  1287 ;;
  1288                           
  1289                           	psect	text13
  1290  000884                     __ptext13:
  1291                           	opt callstack 0
  1292  000884                     _FSM_of_me:
  1293                           	opt callstack 20
  1294  000884                     
  1295                           ;solution02_lab03.c: 328:     readButton_RA5();
  1296  000884  EC3F  F006         	call	_readButton_RA5	;wreg free
  1297  000888                     
  1298                           ;solution02_lab03.c: 329:     count_1sec = count_1sec + 1;
  1299  000888  0E01               	movlw	1
  1300  00088A  240B               	addwf	_count_1sec^0,w,c
  1301  00088C  6E0B               	movwf	_count_1sec^0,c
  1302  00088E  0E00               	movlw	0
  1303  000890  200C               	addwfc	(_count_1sec+1)^0,w,c
  1304  000892  6E0C               	movwf	(_count_1sec+1)^0,c
  1305  000894                     
  1306                           ;solution02_lab03.c: 330:     if (count_1sec == 396){
  1307  000894  0E8C               	movlw	140
  1308  000896  180B               	xorwf	_count_1sec^0,w,c
  1309  000898  E106               	bnz	i2u155_41
  1310  00089A  040C               	decf	(_count_1sec+1)^0,w,c
  1311  00089C  A4D8               	btfss	status,2,c
  1312  00089E  EF53  F004         	goto	i2u155_41
  1313  0008A2  EF55  F004         	goto	i2u155_40
  1314  0008A6                     i2u155_41:
  1315  0008A6  EF89  F004         	goto	i2l2583
  1316  0008AA                     i2u155_40:
  1317  0008AA                     
  1318                           ;solution02_lab03.c: 331:         count_1sec = 0;
  1319  0008AA  0E00               	movlw	0
  1320  0008AC  6E0C               	movwf	(_count_1sec+1)^0,c
  1321  0008AE  0E00               	movlw	0
  1322  0008B0  6E0B               	movwf	_count_1sec^0,c
  1323  0008B2                     
  1324                           ;solution02_lab03.c: 332:         normal_clock_run();
  1325  0008B2  EC4B  F007         	call	_normal_clock_run	;wreg free
  1326  0008B6  EF89  F004         	goto	i2l2583
  1327  0008BA                     i2l2559:
  1328                           
  1329                           ;solution02_lab03.c: 336:             display_normal_clock();
  1330  0008BA  EC09  F000         	call	_display_normal_clock	;wreg free
  1331  0008BE                     
  1332                           ;solution02_lab03.c: 339:             sec0_01 = 0;
  1333  0008BE  0E00               	movlw	0
  1334  0008C0  6E13               	movwf	_sec0_01^0,c	;volatile
  1335  0008C2                     
  1336                           ;solution02_lab03.c: 340:             sec2 = 0;
  1337  0008C2  0E00               	movlw	0
  1338  0008C4  6E14               	movwf	_sec2^0,c	;volatile
  1339  0008C6                     
  1340                           ;solution02_lab03.c: 341:             min2 = 0;
  1341  0008C6  0E00               	movlw	0
  1342  0008C8  6E15               	movwf	_min2^0,c	;volatile
  1343  0008CA                     
  1344                           ;solution02_lab03.c: 342:             number_press = 0;
  1345  0008CA  0E00               	movlw	0
  1346  0008CC  6E04               	movwf	(_number_press+1)^0,c
  1347  0008CE  0E00               	movlw	0
  1348  0008D0  6E03               	movwf	_number_press^0,c
  1349  0008D2                     
  1350                           ;solution02_lab03.c: 343:             count_1sec_stopwatch = 0;
  1351  0008D2  0E00               	movlw	0
  1352  0008D4  6E02               	movwf	(_count_1sec_stopwatch+1)^0,c
  1353  0008D6  0E00               	movlw	0
  1354  0008D8  6E01               	movwf	_count_1sec_stopwatch^0,c
  1355  0008DA                     
  1356                           ;solution02_lab03.c: 344:             stopwatch_firsttime = 0;
  1357  0008DA  0E00               	movlw	0
  1358  0008DC  6E0F               	movwf	_stopwatch_firsttime^0,c
  1359                           
  1360                           ;solution02_lab03.c: 345:             break;
  1361  0008DE  EFAA  F004         	goto	i2l442
  1362  0008E2                     i2l2573:
  1363                           
  1364                           ;solution02_lab03.c: 348:             display_normal_clock();
  1365  0008E2  EC09  F000         	call	_display_normal_clock	;wreg free
  1366                           
  1367                           ;solution02_lab03.c: 349:             modify_hour();
  1368  0008E6  EC77  F005         	call	_modify_hour	;wreg free
  1369                           
  1370                           ;solution02_lab03.c: 350:             break;
  1371  0008EA  EFAA  F004         	goto	i2l442
  1372  0008EE                     i2l2575:
  1373                           
  1374                           ;solution02_lab03.c: 353:             display_normal_clock();
  1375  0008EE  EC09  F000         	call	_display_normal_clock	;wreg free
  1376                           
  1377                           ;solution02_lab03.c: 354:             modify_min();
  1378  0008F2  EC11  F005         	call	_modify_min	;wreg free
  1379                           
  1380                           ;solution02_lab03.c: 355:             break;
  1381  0008F6  EFAA  F004         	goto	i2l442
  1382  0008FA                     i2l2577:
  1383                           
  1384                           ;solution02_lab03.c: 358:             display_normal_clock();
  1385  0008FA  EC09  F000         	call	_display_normal_clock	;wreg free
  1386                           
  1387                           ;solution02_lab03.c: 359:             modify_sec();
  1388  0008FE  ECAB  F004         	call	_modify_sec	;wreg free
  1389                           
  1390                           ;solution02_lab03.c: 360:             break;
  1391  000902  EFAA  F004         	goto	i2l442
  1392  000906                     i2l2579:
  1393                           
  1394                           ;solution02_lab03.c: 363:             stopwatch_mode();
  1395  000906  ECC3  F003         	call	_stopwatch_mode	;wreg free
  1396                           
  1397                           ;solution02_lab03.c: 364:             display_normal_clock();
  1398  00090A  EC09  F000         	call	_display_normal_clock	;wreg free
  1399                           
  1400                           ;solution02_lab03.c: 365:             break;
  1401  00090E  EFAA  F004         	goto	i2l442
  1402  000912                     i2l2583:
  1403  000912  500D               	movf	_current_state^0,w,c
  1404  000914  6E29               	movwf	??_FSM_of_me^0,c
  1405  000916  6A2A               	clrf	(??_FSM_of_me+1)^0,c
  1406                           
  1407                           ; Switch on 2 bytes has been partitioned into a top level switch of size 1, and 1 sub-sw
      +                          itches
  1408                           ; Switch size 1, requested type "simple"
  1409                           ; Number of cases is 1, Range of values is 0 to 0
  1410                           ; switch strategies available:
  1411                           ; Name         Instructions Cycles
  1412                           ; simple_byte            4     3 (average)
  1413                           ;	Chosen strategy is simple_byte
  1414  000918  502A               	movf	(??_FSM_of_me+1)^0,w,c
  1415  00091A  0A00               	xorlw	0	; case 0
  1416  00091C  B4D8               	btfsc	status,2,c
  1417  00091E  EF93  F004         	goto	i2l2625
  1418  000922  EFAA  F004         	goto	i2l442
  1419  000926                     i2l2625:
  1420                           
  1421                           ; Switch size 1, requested type "simple"
  1422                           ; Number of cases is 5, Range of values is 0 to 4
  1423                           ; switch strategies available:
  1424                           ; Name         Instructions Cycles
  1425                           ; simple_byte           16     9 (average)
  1426                           ;	Chosen strategy is simple_byte
  1427  000926  5029               	movf	??_FSM_of_me^0,w,c
  1428  000928  0A00               	xorlw	0	; case 0
  1429  00092A  B4D8               	btfsc	status,2,c
  1430  00092C  EF5D  F004         	goto	i2l2559
  1431  000930  0A01               	xorlw	1	; case 1
  1432  000932  B4D8               	btfsc	status,2,c
  1433  000934  EF71  F004         	goto	i2l2573
  1434  000938  0A03               	xorlw	3	; case 2
  1435  00093A  B4D8               	btfsc	status,2,c
  1436  00093C  EF77  F004         	goto	i2l2575
  1437  000940  0A01               	xorlw	1	; case 3
  1438  000942  B4D8               	btfsc	status,2,c
  1439  000944  EF7D  F004         	goto	i2l2577
  1440  000948  0A07               	xorlw	7	; case 4
  1441  00094A  B4D8               	btfsc	status,2,c
  1442  00094C  EF83  F004         	goto	i2l2579
  1443  000950  EFAA  F004         	goto	i2l442
  1444  000954                     i2l442:
  1445  000954  0012               	return		;funcret
  1446  000956                     __end_of_FSM_of_me:
  1447                           	opt callstack 0
  1448                           
  1449 ;; *************** function _stopwatch_mode *****************
  1450 ;; Defined at:
  1451 ;;		line 370 in file "solution02_lab03.c"
  1452 ;; Parameters:    Size  Location     Type
  1453 ;;		None
  1454 ;; Auto vars:     Size  Location     Type
  1455 ;;		None
  1456 ;; Return value:  Size  Location     Type
  1457 ;;                  1    wreg      void 
  1458 ;; Registers used:
  1459 ;;		wreg, status,2, status,0
  1460 ;; Tracked objects:
  1461 ;;		On entry : 0/0
  1462 ;;		On exit  : 0/0
  1463 ;;		Unchanged: 0/0
  1464 ;; Data sizes:     COMRAM   BANK0   BANK1   BANK2   BANK3   BANK4   BANK5   BANK6   BANK7   BANK8   BANK9  BANK10  BANK1
      +1  BANK12  BANK13  BANK14  BANK15
  1465 ;;      Params:         0       0       0       0       0       0       0       0       0       0       0       0       
      +0       0       0       0       0
  1466 ;;      Locals:         0       0       0       0       0       0       0       0       0       0       0       0       
      +0       0       0       0       0
  1467 ;;      Temps:          0       0       0       0       0       0       0       0       0       0       0       0       
      +0       0       0       0       0
  1468 ;;      Totals:         0       0       0       0       0       0       0       0       0       0       0       0       
      +0       0       0       0       0
  1469 ;;Total ram usage:        0 bytes
  1470 ;; Hardware stack levels used:    1
  1471 ;; This function calls:
  1472 ;;		Nothing
  1473 ;; This function is called by:
  1474 ;;		_FSM_of_me
  1475 ;; This function uses a non-reentrant model
  1476 ;;
  1477                           
  1478                           	psect	text14
  1479  000786                     __ptext14:
  1480                           	opt callstack 0
  1481  000786                     _stopwatch_mode:
  1482                           	opt callstack 24
  1483  000786                     
  1484                           ;solution02_lab03.c: 371:     if ((PORTBbits.RB0 == 0)&&(RB0flag == 0)){
  1485  000786  B081               	btfsc	129,0,c	;volatile
  1486  000788  EFC8  F003         	goto	i2u75_41
  1487  00078C  EFCA  F003         	goto	i2u75_40
  1488  000790                     i2u75_41:
  1489  000790  EFDA  F003         	goto	i2l1805
  1490  000794                     i2u75_40:
  1491  000794  5016               	movf	_RB0flag^0,w,c
  1492  000796  A4D8               	btfss	status,2,c
  1493  000798  EFD0  F003         	goto	i2u76_41
  1494  00079C  EFD2  F003         	goto	i2u76_40
  1495  0007A0                     i2u76_41:
  1496  0007A0  EFDA  F003         	goto	i2l1805
  1497  0007A4                     i2u76_40:
  1498  0007A4                     
  1499                           ;solution02_lab03.c: 372:         RB0flag = 1;
  1500  0007A4  0E01               	movlw	1
  1501  0007A6  6E16               	movwf	_RB0flag^0,c
  1502  0007A8                     
  1503                           ;solution02_lab03.c: 373:         number_press = number_press + 1;
  1504  0007A8  0E01               	movlw	1
  1505  0007AA  2403               	addwf	_number_press^0,w,c
  1506  0007AC  6E03               	movwf	_number_press^0,c
  1507  0007AE  0E00               	movlw	0
  1508  0007B0  2004               	addwfc	(_number_press+1)^0,w,c
  1509  0007B2  6E04               	movwf	(_number_press+1)^0,c
  1510  0007B4                     i2l1805:
  1511                           
  1512                           ;solution02_lab03.c: 376:     if (PORTBbits.RB0 != 0){
  1513  0007B4  A081               	btfss	129,0,c	;volatile
  1514  0007B6  EFDF  F003         	goto	i2u77_41
  1515  0007BA  EFE1  F003         	goto	i2u77_40
  1516  0007BE                     i2u77_41:
  1517  0007BE  EFE3  F003         	goto	i2l1809
  1518  0007C2                     i2u77_40:
  1519  0007C2                     
  1520                           ;solution02_lab03.c: 377:         RB0flag = 0;
  1521  0007C2  0E00               	movlw	0
  1522  0007C4  6E16               	movwf	_RB0flag^0,c
  1523  0007C6                     i2l1809:
  1524                           
  1525                           ;solution02_lab03.c: 380:     if (number_press % 2 != 0){
  1526  0007C6  A003               	btfss	_number_press^0,0,c
  1527  0007C8  EFE8  F003         	goto	i2u78_41
  1528  0007CC  EFEA  F003         	goto	i2u78_40
  1529  0007D0                     i2u78_41:
  1530  0007D0  EF3D  F004         	goto	i2l1847
  1531  0007D4                     i2u78_40:
  1532  0007D4                     
  1533                           ;solution02_lab03.c: 381:         count_1sec_stopwatch = count_1sec_stopwatch + 1;
  1534  0007D4  0E01               	movlw	1
  1535  0007D6  2401               	addwf	_count_1sec_stopwatch^0,w,c
  1536  0007D8  6E01               	movwf	_count_1sec_stopwatch^0,c
  1537  0007DA  0E00               	movlw	0
  1538  0007DC  2002               	addwfc	(_count_1sec_stopwatch+1)^0,w,c
  1539  0007DE  6E02               	movwf	(_count_1sec_stopwatch+1)^0,c
  1540                           
  1541                           ;solution02_lab03.c: 382:         if (count_1sec_stopwatch == 396/100){
  1542  0007E0  0E03               	movlw	3
  1543  0007E2  1801               	xorwf	_count_1sec_stopwatch^0,w,c
  1544  0007E4  1002               	iorwf	(_count_1sec_stopwatch+1)^0,w,c
  1545  0007E6  A4D8               	btfss	status,2,c
  1546  0007E8  EFF8  F003         	goto	i2u79_41
  1547  0007EC  EFFA  F003         	goto	i2u79_40
  1548  0007F0                     i2u79_41:
  1549  0007F0  EF41  F004         	goto	i2l453
  1550  0007F4                     i2u79_40:
  1551  0007F4                     
  1552                           ;solution02_lab03.c: 383:             count_1sec_stopwatch = 0;
  1553  0007F4  0E00               	movlw	0
  1554  0007F6  6E02               	movwf	(_count_1sec_stopwatch+1)^0,c
  1555  0007F8  0E00               	movlw	0
  1556  0007FA  6E01               	movwf	_count_1sec_stopwatch^0,c
  1557  0007FC                     
  1558                           ;solution02_lab03.c: 385:             sec0_01++;
  1559  0007FC  2A13               	incf	_sec0_01^0,f,c	;volatile
  1560  0007FE                     
  1561                           ;solution02_lab03.c: 386:             flag_change_normal_sec00_2 = 1;
  1562  0007FE  0E01               	movlw	1
  1563  000800  6E10               	movwf	_flag_change_normal_sec00_2^0,c
  1564  000802                     
  1565                           ;solution02_lab03.c: 387:             if (sec0_01 > 99) {
  1566  000802  0E63               	movlw	99
  1567  000804  6413               	cpfsgt	_sec0_01^0,c	;volatile
  1568  000806  EF07  F004         	goto	i2u80_41
  1569  00080A  EF09  F004         	goto	i2u80_40
  1570  00080E                     i2u80_41:
  1571  00080E  EF10  F004         	goto	i2l1829
  1572  000812                     i2u80_40:
  1573  000812                     
  1574                           ;solution02_lab03.c: 388:                 sec0_01 = 0;
  1575  000812  0E00               	movlw	0
  1576  000814  6E13               	movwf	_sec0_01^0,c	;volatile
  1577  000816                     
  1578                           ;solution02_lab03.c: 389:                 sec2++;
  1579  000816  2A14               	incf	_sec2^0,f,c	;volatile
  1580  000818                     
  1581                           ;solution02_lab03.c: 390:                 flag_change_normal_sec00_2 = 1;
  1582  000818  0E01               	movlw	1
  1583  00081A  6E10               	movwf	_flag_change_normal_sec00_2^0,c
  1584  00081C                     
  1585                           ;solution02_lab03.c: 391:                 flag_change_normal_sec2 = 1;
  1586  00081C  0E01               	movlw	1
  1587  00081E  6E11               	movwf	_flag_change_normal_sec2^0,c
  1588  000820                     i2l1829:
  1589                           
  1590                           ;solution02_lab03.c: 393:             if (sec2 > 59) {
  1591  000820  0E3B               	movlw	59
  1592  000822  6414               	cpfsgt	_sec2^0,c	;volatile
  1593  000824  EF16  F004         	goto	i2u81_41
  1594  000828  EF18  F004         	goto	i2u81_40
  1595  00082C                     i2u81_41:
  1596  00082C  EF1F  F004         	goto	i2l1839
  1597  000830                     i2u81_40:
  1598  000830                     
  1599                           ;solution02_lab03.c: 394:                 sec2 = 0;
  1600  000830  0E00               	movlw	0
  1601  000832  6E14               	movwf	_sec2^0,c	;volatile
  1602  000834                     
  1603                           ;solution02_lab03.c: 395:                 min2++;
  1604  000834  2A15               	incf	_min2^0,f,c	;volatile
  1605  000836                     
  1606                           ;solution02_lab03.c: 396:                 flag_change_normal_sec2 = 1;
  1607  000836  0E01               	movlw	1
  1608  000838  6E11               	movwf	_flag_change_normal_sec2^0,c
  1609  00083A                     
  1610                           ;solution02_lab03.c: 397:                 flag_change_normal_min2 = 1;
  1611  00083A  0E01               	movlw	1
  1612  00083C  6E12               	movwf	_flag_change_normal_min2^0,c
  1613  00083E                     i2l1839:
  1614                           
  1615                           ;solution02_lab03.c: 399:             if (min2 > 59 && sec2 == 0 && sec0_01 == 0) {
  1616  00083E  0E3B               	movlw	59
  1617  000840  6415               	cpfsgt	_min2^0,c	;volatile
  1618  000842  EF25  F004         	goto	i2u82_41
  1619  000846  EF27  F004         	goto	i2u82_40
  1620  00084A                     i2u82_41:
  1621  00084A  EF41  F004         	goto	i2l453
  1622  00084E                     i2u82_40:
  1623  00084E  5014               	movf	_sec2^0,w,c	;volatile
  1624  000850  A4D8               	btfss	status,2,c
  1625  000852  EF2D  F004         	goto	i2u83_41
  1626  000856  EF2F  F004         	goto	i2u83_40
  1627  00085A                     i2u83_41:
  1628  00085A  EF41  F004         	goto	i2l453
  1629  00085E                     i2u83_40:
  1630  00085E  5013               	movf	_sec0_01^0,w,c	;volatile
  1631  000860  A4D8               	btfss	status,2,c
  1632  000862  EF35  F004         	goto	i2u84_41
  1633  000866  EF37  F004         	goto	i2u84_40
  1634  00086A                     i2u84_41:
  1635  00086A  EF41  F004         	goto	i2l453
  1636  00086E                     i2u84_40:
  1637  00086E                     
  1638                           ;solution02_lab03.c: 400:                 min2 = 0;
  1639  00086E  0E00               	movlw	0
  1640  000870  6E15               	movwf	_min2^0,c	;volatile
  1641                           
  1642                           ;solution02_lab03.c: 401:                 flag_change_normal_min2 = 1;
  1643  000872  0E01               	movlw	1
  1644  000874  6E12               	movwf	_flag_change_normal_min2^0,c
  1645  000876  EF41  F004         	goto	i2l453
  1646  00087A                     i2l1847:
  1647                           
  1648                           ;solution02_lab03.c: 409:         count_1sec_stopwatch = 0;
  1649  00087A  0E00               	movlw	0
  1650  00087C  6E02               	movwf	(_count_1sec_stopwatch+1)^0,c
  1651  00087E  0E00               	movlw	0
  1652  000880  6E01               	movwf	_count_1sec_stopwatch^0,c
  1653  000882                     i2l453:
  1654  000882  0012               	return		;funcret
  1655  000884                     __end_of_stopwatch_mode:
  1656                           	opt callstack 0
  1657                           
  1658 ;; *************** function _readButton_RA5 *****************
  1659 ;; Defined at:
  1660 ;;		line 296 in file "solution02_lab03.c"
  1661 ;; Parameters:    Size  Location     Type
  1662 ;;		None
  1663 ;; Auto vars:     Size  Location     Type
  1664 ;;		None
  1665 ;; Return value:  Size  Location     Type
  1666 ;;                  1    wreg      void 
  1667 ;; Registers used:
  1668 ;;		wreg, status,2, status,0, cstack
  1669 ;; Tracked objects:
  1670 ;;		On entry : 0/0
  1671 ;;		On exit  : 0/0
  1672 ;;		Unchanged: 0/0
  1673 ;; Data sizes:     COMRAM   BANK0   BANK1   BANK2   BANK3   BANK4   BANK5   BANK6   BANK7   BANK8   BANK9  BANK10  BANK1
      +1  BANK12  BANK13  BANK14  BANK15
  1674 ;;      Params:         0       0       0       0       0       0       0       0       0       0       0       0       
      +0       0       0       0       0
  1675 ;;      Locals:         0       0       0       0       0       0       0       0       0       0       0       0       
      +0       0       0       0       0
  1676 ;;      Temps:          0       0       0       0       0       0       0       0       0       0       0       0       
      +0       0       0       0       0
  1677 ;;      Totals:         0       0       0       0       0       0       0       0       0       0       0       0       
      +0       0       0       0       0
  1678 ;;Total ram usage:        0 bytes
  1679 ;; Hardware stack levels used:    1
  1680 ;; Hardware stack levels required when called:    4
  1681 ;; This function calls:
  1682 ;;		_return_basic_display
  1683 ;; This function is called by:
  1684 ;;		_FSM_of_me
  1685 ;; This function uses a non-reentrant model
  1686 ;;
  1687                           
  1688                           	psect	text15
  1689  000C7E                     __ptext15:
  1690                           	opt callstack 0
  1691  000C7E                     _readButton_RA5:
  1692                           	opt callstack 20
  1693  000C7E                     
  1694                           ;solution02_lab03.c: 297:     if ((RA5flag == 0)&&(PORTAbits.RA5 == 0)){
  1695  000C7E  5017               	movf	_RA5flag^0,w,c
  1696  000C80  A4D8               	btfss	status,2,c
  1697  000C82  EF45  F006         	goto	i2u147_41
  1698  000C86  EF47  F006         	goto	i2u147_40
  1699  000C8A                     i2u147_41:
  1700  000C8A  EF91  F006         	goto	i2l424
  1701  000C8E                     i2u147_40:
  1702  000C8E  BA80               	btfsc	128,5,c	;volatile
  1703  000C90  EF4C  F006         	goto	i2u148_41
  1704  000C94  EF4E  F006         	goto	i2u148_40
  1705  000C98                     i2u148_41:
  1706  000C98  EF91  F006         	goto	i2l424
  1707  000C9C                     i2u148_40:
  1708  000C9C                     
  1709                           ;solution02_lab03.c: 298:         RA5flag = 1;
  1710  000C9C  0E01               	movlw	1
  1711  000C9E  6E17               	movwf	_RA5flag^0,c
  1712                           
  1713                           ;solution02_lab03.c: 299:         if (current_state == mode_zero){
  1714  000CA0  500D               	movf	_current_state^0,w,c
  1715  000CA2  A4D8               	btfss	status,2,c
  1716  000CA4  EF56  F006         	goto	i2u149_41
  1717  000CA8  EF58  F006         	goto	i2u149_40
  1718  000CAC                     i2u149_41:
  1719  000CAC  EF5C  F006         	goto	i2l2491
  1720  000CB0                     i2u149_40:
  1721  000CB0                     
  1722                           ;solution02_lab03.c: 300:             current_state = mode_one;
  1723  000CB0  0E01               	movlw	1
  1724  000CB2  6E0D               	movwf	_current_state^0,c
  1725  000CB4  EF9A  F006         	goto	i2l426
  1726  000CB8                     i2l2491:
  1727                           
  1728                           ;solution02_lab03.c: 303:         if (current_state == mode_one){
  1729  000CB8  040D               	decf	_current_state^0,w,c
  1730  000CBA  A4D8               	btfss	status,2,c
  1731  000CBC  EF62  F006         	goto	i2u150_41
  1732  000CC0  EF64  F006         	goto	i2u150_40
  1733  000CC4                     i2u150_41:
  1734  000CC4  EF6A  F006         	goto	i2l2499
  1735  000CC8                     i2u150_40:
  1736  000CC8                     
  1737                           ;solution02_lab03.c: 304:             current_state = mode_two;
  1738  000CC8  0E02               	movlw	2
  1739  000CCA  6E0D               	movwf	_current_state^0,c
  1740  000CCC                     i2l2495:
  1741                           
  1742                           ;solution02_lab03.c: 305:             return_basic_display();
  1743  000CCC  EC9B  F006         	call	_return_basic_display	;wreg free
  1744  000CD0  EF9A  F006         	goto	i2l426
  1745  000CD4                     i2l2499:
  1746                           
  1747                           ;solution02_lab03.c: 308:         if (current_state == mode_two){
  1748  000CD4  0E02               	movlw	2
  1749  000CD6  180D               	xorwf	_current_state^0,w,c
  1750  000CD8  A4D8               	btfss	status,2,c
  1751  000CDA  EF71  F006         	goto	i2u151_41
  1752  000CDE  EF73  F006         	goto	i2u151_40
  1753  000CE2                     i2u151_41:
  1754  000CE2  EF77  F006         	goto	i2l2507
  1755  000CE6                     i2u151_40:
  1756  000CE6                     
  1757                           ;solution02_lab03.c: 309:             current_state = mode_three;
  1758  000CE6  0E03               	movlw	3
  1759  000CE8  6E0D               	movwf	_current_state^0,c
  1760  000CEA  EF66  F006         	goto	i2l2495
  1761  000CEE                     i2l2507:
  1762                           
  1763                           ;solution02_lab03.c: 313:         if (current_state == mode_three){
  1764  000CEE  0E03               	movlw	3
  1765  000CF0  180D               	xorwf	_current_state^0,w,c
  1766  000CF2  A4D8               	btfss	status,2,c
  1767  000CF4  EF7E  F006         	goto	i2u152_41
  1768  000CF8  EF80  F006         	goto	i2u152_40
  1769  000CFC                     i2u152_41:
  1770  000CFC  EF84  F006         	goto	i2l2513
  1771  000D00                     i2u152_40:
  1772  000D00                     
  1773                           ;solution02_lab03.c: 314:             current_state = mode_four;
  1774  000D00  0E04               	movlw	4
  1775  000D02  6E0D               	movwf	_current_state^0,c
  1776  000D04  EF9A  F006         	goto	i2l426
  1777  000D08                     i2l2513:
  1778                           
  1779                           ;solution02_lab03.c: 317:         if (current_state == mode_four){
  1780  000D08  0E04               	movlw	4
  1781  000D0A  180D               	xorwf	_current_state^0,w,c
  1782  000D0C  A4D8               	btfss	status,2,c
  1783  000D0E  EF8B  F006         	goto	i2u153_41
  1784  000D12  EF8D  F006         	goto	i2u153_40
  1785  000D16                     i2u153_41:
  1786  000D16  EF91  F006         	goto	i2l424
  1787  000D1A                     i2u153_40:
  1788  000D1A                     
  1789                           ;solution02_lab03.c: 318:             current_state = mode_zero;
  1790  000D1A  0E00               	movlw	0
  1791  000D1C  6E0D               	movwf	_current_state^0,c
  1792  000D1E  EF9A  F006         	goto	i2l426
  1793  000D22                     i2l424:
  1794                           
  1795                           ;solution02_lab03.c: 322:     if (PORTAbits.RA5 != 0){
  1796  000D22  AA80               	btfss	128,5,c	;volatile
  1797  000D24  EF96  F006         	goto	i2u154_41
  1798  000D28  EF98  F006         	goto	i2u154_40
  1799  000D2C                     i2u154_41:
  1800  000D2C  EF9A  F006         	goto	i2l426
  1801  000D30                     i2u154_40:
  1802  000D30                     
  1803                           ;solution02_lab03.c: 323:         RA5flag = 0;
  1804  000D30  0E00               	movlw	0
  1805  000D32  6E17               	movwf	_RA5flag^0,c
  1806  000D34                     i2l426:
  1807  000D34  0012               	return		;funcret
  1808  000D36                     __end_of_readButton_RA5:
  1809                           	opt callstack 0
  1810                           
  1811 ;; *************** function _return_basic_display *****************
  1812 ;; Defined at:
  1813 ;;		line 188 in file "solution02_lab03.c"
  1814 ;; Parameters:    Size  Location     Type
  1815 ;;		None
  1816 ;; Auto vars:     Size  Location     Type
  1817 ;;		None
  1818 ;; Return value:  Size  Location     Type
  1819 ;;                  1    wreg      void 
  1820 ;; Registers used:
  1821 ;;		wreg, status,2, status,0, cstack
  1822 ;; Tracked objects:
  1823 ;;		On entry : 0/0
  1824 ;;		On exit  : 0/0
  1825 ;;		Unchanged: 0/0
  1826 ;; Data sizes:     COMRAM   BANK0   BANK1   BANK2   BANK3   BANK4   BANK5   BANK6   BANK7   BANK8   BANK9  BANK10  BANK1
      +1  BANK12  BANK13  BANK14  BANK15
  1827 ;;      Params:         0       0       0       0       0       0       0       0       0       0       0       0       
      +0       0       0       0       0
  1828 ;;      Locals:         0       0       0       0       0       0       0       0       0       0       0       0       
      +0       0       0       0       0
  1829 ;;      Temps:          0       0       0       0       0       0       0       0       0       0       0       0       
      +0       0       0       0       0
  1830 ;;      Totals:         0       0       0       0       0       0       0       0       0       0       0       0       
      +0       0       0       0       0
  1831 ;;Total ram usage:        0 bytes
  1832 ;; Hardware stack levels used:    1
  1833 ;; Hardware stack levels required when called:    3
  1834 ;; This function calls:
  1835 ;;		_LCDPutChar
  1836 ;;		___awdiv
  1837 ;;		___awmod
  1838 ;;		i2_LCDPutInst
  1839 ;; This function is called by:
  1840 ;;		_readButton_RA5
  1841 ;; This function uses a non-reentrant model
  1842 ;;
  1843                           
  1844                           	psect	text16
  1845  000D36                     __ptext16:
  1846                           	opt callstack 0
  1847  000D36                     _return_basic_display:
  1848                           	opt callstack 20
  1849  000D36                     
  1850                           ;solution02_lab03.c: 189:     LCDPutInst(0x80);
  1851  000D36  0E80               	movlw	128
  1852  000D38  EC2C  F008         	call	i2_LCDPutInst
  1853                           
  1854                           ;solution02_lab03.c: 190:     LCDPutChar(hr/10+'0');
  1855  000D3C  C01E  F01F         	movff	_hr,___awdiv@dividend	;volatile
  1856  000D40  6A20               	clrf	(___awdiv@dividend+1)^0,c
  1857  000D42  0E00               	movlw	0
  1858  000D44  6E22               	movwf	(___awdiv@divisor+1)^0,c
  1859  000D46  0E0A               	movlw	10
  1860  000D48  6E21               	movwf	___awdiv@divisor^0,c
  1861  000D4A  ECDD  F005         	call	___awdiv	;wreg free
  1862  000D4E  501F               	movf	?___awdiv^0,w,c
  1863  000D50  0F30               	addlw	48
  1864  000D52  EC5F  F008         	call	_LCDPutChar
  1865                           
  1866                           ;solution02_lab03.c: 191:     LCDPutChar(hr%10+'0');
  1867  000D56  C01E  F01F         	movff	_hr,___awmod@dividend	;volatile
  1868  000D5A  6A20               	clrf	(___awmod@dividend+1)^0,c
  1869  000D5C  0E00               	movlw	0
  1870  000D5E  6E22               	movwf	(___awmod@divisor+1)^0,c
  1871  000D60  0E0A               	movlw	10
  1872  000D62  6E21               	movwf	___awmod@divisor^0,c
  1873  000D64  ECF3  F006         	call	___awmod	;wreg free
  1874  000D68  501F               	movf	?___awmod^0,w,c
  1875  000D6A  0F30               	addlw	48
  1876  000D6C  EC5F  F008         	call	_LCDPutChar
  1877                           
  1878                           ;solution02_lab03.c: 192:     LCDPutChar(':');
  1879  000D70  0E3A               	movlw	58
  1880  000D72  EC5F  F008         	call	_LCDPutChar
  1881                           
  1882                           ;solution02_lab03.c: 193:     LCDPutChar(min/10+'0');
  1883  000D76  C01D  F01F         	movff	_min,___awdiv@dividend	;volatile
  1884  000D7A  6A20               	clrf	(___awdiv@dividend+1)^0,c
  1885  000D7C  0E00               	movlw	0
  1886  000D7E  6E22               	movwf	(___awdiv@divisor+1)^0,c
  1887  000D80  0E0A               	movlw	10
  1888  000D82  6E21               	movwf	___awdiv@divisor^0,c
  1889  000D84  ECDD  F005         	call	___awdiv	;wreg free
  1890  000D88  501F               	movf	?___awdiv^0,w,c
  1891  000D8A  0F30               	addlw	48
  1892  000D8C  EC5F  F008         	call	_LCDPutChar
  1893                           
  1894                           ;solution02_lab03.c: 194:     LCDPutChar(min%10+'0');
  1895  000D90  C01D  F01F         	movff	_min,___awmod@dividend	;volatile
  1896  000D94  6A20               	clrf	(___awmod@dividend+1)^0,c
  1897  000D96  0E00               	movlw	0
  1898  000D98  6E22               	movwf	(___awmod@divisor+1)^0,c
  1899  000D9A  0E0A               	movlw	10
  1900  000D9C  6E21               	movwf	___awmod@divisor^0,c
  1901  000D9E  ECF3  F006         	call	___awmod	;wreg free
  1902  000DA2  501F               	movf	?___awmod^0,w,c
  1903  000DA4  0F30               	addlw	48
  1904  000DA6  EC5F  F008         	call	_LCDPutChar
  1905                           
  1906                           ;solution02_lab03.c: 195:     LCDPutChar(':');
  1907  000DAA  0E3A               	movlw	58
  1908  000DAC  EC5F  F008         	call	_LCDPutChar
  1909                           
  1910                           ;solution02_lab03.c: 196:     LCDPutChar(sec/10+'0');
  1911  000DB0  C01C  F01F         	movff	_sec,___awdiv@dividend	;volatile
  1912  000DB4  6A20               	clrf	(___awdiv@dividend+1)^0,c
  1913  000DB6  0E00               	movlw	0
  1914  000DB8  6E22               	movwf	(___awdiv@divisor+1)^0,c
  1915  000DBA  0E0A               	movlw	10
  1916  000DBC  6E21               	movwf	___awdiv@divisor^0,c
  1917  000DBE  ECDD  F005         	call	___awdiv	;wreg free
  1918  000DC2  501F               	movf	?___awdiv^0,w,c
  1919  000DC4  0F30               	addlw	48
  1920  000DC6  EC5F  F008         	call	_LCDPutChar
  1921                           
  1922                           ;solution02_lab03.c: 197:     LCDPutChar(sec%10+'0');
  1923  000DCA  C01C  F01F         	movff	_sec,___awmod@dividend	;volatile
  1924  000DCE  6A20               	clrf	(___awmod@dividend+1)^0,c
  1925  000DD0  0E00               	movlw	0
  1926  000DD2  6E22               	movwf	(___awmod@divisor+1)^0,c
  1927  000DD4  0E0A               	movlw	10
  1928  000DD6  6E21               	movwf	___awmod@divisor^0,c
  1929  000DD8  ECF3  F006         	call	___awmod	;wreg free
  1930  000DDC  501F               	movf	?___awmod^0,w,c
  1931  000DDE  0F30               	addlw	48
  1932  000DE0  EC5F  F008         	call	_LCDPutChar
  1933  000DE4  0012               	return		;funcret
  1934  000DE6                     __end_of_return_basic_display:
  1935                           	opt callstack 0
  1936                           
  1937 ;; *************** function _normal_clock_run *****************
  1938 ;; Defined at:
  1939 ;;		line 166 in file "solution02_lab03.c"
  1940 ;; Parameters:    Size  Location     Type
  1941 ;;		None
  1942 ;; Auto vars:     Size  Location     Type
  1943 ;;		None
  1944 ;; Return value:  Size  Location     Type
  1945 ;;                  1    wreg      void 
  1946 ;; Registers used:
  1947 ;;		wreg, status,2, status,0
  1948 ;; Tracked objects:
  1949 ;;		On entry : 0/0
  1950 ;;		On exit  : 0/0
  1951 ;;		Unchanged: 0/0
  1952 ;; Data sizes:     COMRAM   BANK0   BANK1   BANK2   BANK3   BANK4   BANK5   BANK6   BANK7   BANK8   BANK9  BANK10  BANK1
      +1  BANK12  BANK13  BANK14  BANK15
  1953 ;;      Params:         0       0       0       0       0       0       0       0       0       0       0       0       
      +0       0       0       0       0
  1954 ;;      Locals:         0       0       0       0       0       0       0       0       0       0       0       0       
      +0       0       0       0       0
  1955 ;;      Temps:          0       0       0       0       0       0       0       0       0       0       0       0       
      +0       0       0       0       0
  1956 ;;      Totals:         0       0       0       0       0       0       0       0       0       0       0       0       
      +0       0       0       0       0
  1957 ;;Total ram usage:        0 bytes
  1958 ;; Hardware stack levels used:    1
  1959 ;; This function calls:
  1960 ;;		Nothing
  1961 ;; This function is called by:
  1962 ;;		_FSM_of_me
  1963 ;; This function uses a non-reentrant model
  1964 ;;
  1965                           
  1966                           	psect	text17
  1967  000E96                     __ptext17:
  1968                           	opt callstack 0
  1969  000E96                     _normal_clock_run:
  1970                           	opt callstack 24
  1971  000E96                     
  1972                           ;solution02_lab03.c: 167:     sec++;
  1973  000E96  2A1C               	incf	_sec^0,f,c	;volatile
  1974  000E98                     
  1975                           ;solution02_lab03.c: 168:     flag_change_normal_sec = 1;
  1976  000E98  0E01               	movlw	1
  1977  000E9A  6E18               	movwf	_flag_change_normal_sec^0,c
  1978  000E9C                     
  1979                           ;solution02_lab03.c: 169:     if (sec > 59) {
  1980  000E9C  0E3B               	movlw	59
  1981  000E9E  641C               	cpfsgt	_sec^0,c	;volatile
  1982  000EA0  EF54  F007         	goto	i2u44_41
  1983  000EA4  EF56  F007         	goto	i2u44_40
  1984  000EA8                     i2u44_41:
  1985  000EA8  EF5D  F007         	goto	i2l1643
  1986  000EAC                     i2u44_40:
  1987  000EAC                     
  1988                           ;solution02_lab03.c: 170:         sec = 0;
  1989  000EAC  0E00               	movlw	0
  1990  000EAE  6E1C               	movwf	_sec^0,c	;volatile
  1991  000EB0                     
  1992                           ;solution02_lab03.c: 171:         min++;
  1993  000EB0  2A1D               	incf	_min^0,f,c	;volatile
  1994  000EB2                     
  1995                           ;solution02_lab03.c: 172:         flag_change_normal_sec = 1;
  1996  000EB2  0E01               	movlw	1
  1997  000EB4  6E18               	movwf	_flag_change_normal_sec^0,c
  1998  000EB6                     
  1999                           ;solution02_lab03.c: 173:         flag_change_normal_min = 1;
  2000  000EB6  0E01               	movlw	1
  2001  000EB8  6E19               	movwf	_flag_change_normal_min^0,c
  2002  000EBA                     i2l1643:
  2003                           
  2004                           ;solution02_lab03.c: 175:     if (min > 59) {
  2005  000EBA  0E3B               	movlw	59
  2006  000EBC  641D               	cpfsgt	_min^0,c	;volatile
  2007  000EBE  EF63  F007         	goto	i2u45_41
  2008  000EC2  EF65  F007         	goto	i2u45_40
  2009  000EC6                     i2u45_41:
  2010  000EC6  EF6C  F007         	goto	i2l1653
  2011  000ECA                     i2u45_40:
  2012  000ECA                     
  2013                           ;solution02_lab03.c: 176:         min = 0;
  2014  000ECA  0E00               	movlw	0
  2015  000ECC  6E1D               	movwf	_min^0,c	;volatile
  2016  000ECE                     
  2017                           ;solution02_lab03.c: 177:         hr++;
  2018  000ECE  2A1E               	incf	_hr^0,f,c	;volatile
  2019  000ED0                     
  2020                           ;solution02_lab03.c: 178:         flag_change_normal_min = 1;
  2021  000ED0  0E01               	movlw	1
  2022  000ED2  6E19               	movwf	_flag_change_normal_min^0,c
  2023  000ED4                     
  2024                           ;solution02_lab03.c: 179:         flag_change_normal_hour = 1;
  2025  000ED4  0E01               	movlw	1
  2026  000ED6  6E1A               	movwf	_flag_change_normal_hour^0,c
  2027  000ED8                     i2l1653:
  2028                           
  2029                           ;solution02_lab03.c: 181:     if (hr > 23 && min == 0 && sec == 0) {
  2030  000ED8  0E17               	movlw	23
  2031  000EDA  641E               	cpfsgt	_hr^0,c	;volatile
  2032  000EDC  EF72  F007         	goto	i2u46_41
  2033  000EE0  EF74  F007         	goto	i2u46_40
  2034  000EE4                     i2u46_41:
  2035  000EE4  EF88  F007         	goto	i2l388
  2036  000EE8                     i2u46_40:
  2037  000EE8  501D               	movf	_min^0,w,c	;volatile
  2038  000EEA  A4D8               	btfss	status,2,c
  2039  000EEC  EF7A  F007         	goto	i2u47_41
  2040  000EF0  EF7C  F007         	goto	i2u47_40
  2041  000EF4                     i2u47_41:
  2042  000EF4  EF88  F007         	goto	i2l388
  2043  000EF8                     i2u47_40:
  2044  000EF8  501C               	movf	_sec^0,w,c	;volatile
  2045  000EFA  A4D8               	btfss	status,2,c
  2046  000EFC  EF82  F007         	goto	i2u48_41
  2047  000F00  EF84  F007         	goto	i2u48_40
  2048  000F04                     i2u48_41:
  2049  000F04  EF88  F007         	goto	i2l388
  2050  000F08                     i2u48_40:
  2051  000F08                     
  2052                           ;solution02_lab03.c: 182:         hr = 0;
  2053  000F08  0E00               	movlw	0
  2054  000F0A  6E1E               	movwf	_hr^0,c	;volatile
  2055                           
  2056                           ;solution02_lab03.c: 183:         flag_change_normal_hour = 1;
  2057  000F0C  0E01               	movlw	1
  2058  000F0E  6E1A               	movwf	_flag_change_normal_hour^0,c
  2059  000F10                     i2l388:
  2060  000F10  0012               	return		;funcret
  2061  000F12                     __end_of_normal_clock_run:
  2062                           	opt callstack 0
  2063                           
  2064 ;; *************** function _modify_sec *****************
  2065 ;; Defined at:
  2066 ;;		line 264 in file "solution02_lab03.c"
  2067 ;; Parameters:    Size  Location     Type
  2068 ;;		None
  2069 ;; Auto vars:     Size  Location     Type
  2070 ;;		None
  2071 ;; Return value:  Size  Location     Type
  2072 ;;                  1    wreg      void 
  2073 ;; Registers used:
  2074 ;;		wreg, status,2, status,0, cstack
  2075 ;; Tracked objects:
  2076 ;;		On entry : 0/0
  2077 ;;		On exit  : 0/0
  2078 ;;		Unchanged: 0/0
  2079 ;; Data sizes:     COMRAM   BANK0   BANK1   BANK2   BANK3   BANK4   BANK5   BANK6   BANK7   BANK8   BANK9  BANK10  BANK1
      +1  BANK12  BANK13  BANK14  BANK15
  2080 ;;      Params:         0       0       0       0       0       0       0       0       0       0       0       0       
      +0       0       0       0       0
  2081 ;;      Locals:         0       0       0       0       0       0       0       0       0       0       0       0       
      +0       0       0       0       0
  2082 ;;      Temps:          0       0       0       0       0       0       0       0       0       0       0       0       
      +0       0       0       0       0
  2083 ;;      Totals:         0       0       0       0       0       0       0       0       0       0       0       0       
      +0       0       0       0       0
  2084 ;;Total ram usage:        0 bytes
  2085 ;; Hardware stack levels used:    1
  2086 ;; Hardware stack levels required when called:    4
  2087 ;; This function calls:
  2088 ;;		_display_normal_clock
  2089 ;; This function is called by:
  2090 ;;		_FSM_of_me
  2091 ;; This function uses a non-reentrant model
  2092 ;;
  2093                           
  2094                           	psect	text18
  2095  000956                     __ptext18:
  2096                           	opt callstack 0
  2097  000956                     _modify_sec:
  2098                           	opt callstack 20
  2099  000956                     
  2100                           ;solution02_lab03.c: 265:     if (PORTBbits.RB0 == 0){
  2101  000956  B081               	btfsc	129,0,c	;volatile
  2102  000958  EFB0  F004         	goto	i2u141_41
  2103  00095C  EFB2  F004         	goto	i2u141_40
  2104  000960                     i2u141_41:
  2105  000960  EF06  F005         	goto	i2l2479
  2106  000964                     i2u141_40:
  2107  000964                     
  2108                           ;solution02_lab03.c: 266:         RB0_press_count = RB0_press_count + 1;
  2109  000964  0E01               	movlw	1
  2110  000966  2409               	addwf	_RB0_press_count^0,w,c
  2111  000968  6E09               	movwf	_RB0_press_count^0,c
  2112  00096A  0E00               	movlw	0
  2113  00096C  200A               	addwfc	(_RB0_press_count+1)^0,w,c
  2114  00096E  6E0A               	movwf	(_RB0_press_count+1)^0,c
  2115  000970                     
  2116                           ;solution02_lab03.c: 267:         if (RB0flag == 0){
  2117  000970  5016               	movf	_RB0flag^0,w,c
  2118  000972  A4D8               	btfss	status,2,c
  2119  000974  EFBE  F004         	goto	i2u142_41
  2120  000978  EFC0  F004         	goto	i2u142_40
  2121  00097C                     i2u142_41:
  2122  00097C  EFD2  F004         	goto	i2l2465
  2123  000980                     i2u142_40:
  2124  000980                     
  2125                           ;solution02_lab03.c: 268:             RB0flag = 1;
  2126  000980  0E01               	movlw	1
  2127  000982  6E16               	movwf	_RB0flag^0,c
  2128  000984                     
  2129                           ;solution02_lab03.c: 269:             sec = sec + 1;
  2130  000984  281C               	incf	_sec^0,w,c	;volatile
  2131  000986  6E1C               	movwf	_sec^0,c	;volatile
  2132  000988                     
  2133                           ;solution02_lab03.c: 270:             if (sec > 59){
  2134  000988  0E3B               	movlw	59
  2135  00098A  641C               	cpfsgt	_sec^0,c	;volatile
  2136  00098C  EFCA  F004         	goto	i2u143_41
  2137  000990  EFCC  F004         	goto	i2u143_40
  2138  000994                     i2u143_41:
  2139  000994  EFCE  F004         	goto	i2l416
  2140  000998                     i2u143_40:
  2141  000998                     
  2142                           ;solution02_lab03.c: 271:             sec = 0;
  2143  000998  0E00               	movlw	0
  2144  00099A  6E1C               	movwf	_sec^0,c	;volatile
  2145  00099C                     i2l416:
  2146                           
  2147                           ;solution02_lab03.c: 273:             flag_change_normal_sec = 1;
  2148  00099C  0E01               	movlw	1
  2149  00099E  6E18               	movwf	_flag_change_normal_sec^0,c
  2150  0009A0                     
  2151                           ;solution02_lab03.c: 274:             display_normal_clock();
  2152  0009A0  EC09  F000         	call	_display_normal_clock	;wreg free
  2153  0009A4                     i2l2465:
  2154                           
  2155                           ;solution02_lab03.c: 276:         if (RB0_press_count > 396){
  2156  0009A4  BE0A               	btfsc	(_RB0_press_count+1)^0,7,c
  2157  0009A6  EFDE  F004         	goto	i2u144_41
  2158  0009AA  0E8D               	movlw	141
  2159  0009AC  5C09               	subwf	_RB0_press_count^0,w,c
  2160  0009AE  0E01               	movlw	1
  2161  0009B0  580A               	subwfb	(_RB0_press_count+1)^0,w,c
  2162  0009B2  A0D8               	btfss	status,0,c
  2163  0009B4  EFDE  F004         	goto	i2u144_41
  2164  0009B8  EFE0  F004         	goto	i2u144_40
  2165  0009BC                     i2u144_41:
  2166  0009BC  EF10  F005         	goto	i2l421
  2167  0009C0                     i2u144_40:
  2168  0009C0                     
  2169                           ;solution02_lab03.c: 277:             count_change_time = count_change_time + 1;
  2170  0009C0  0E01               	movlw	1
  2171  0009C2  2407               	addwf	_count_change_time^0,w,c
  2172  0009C4  6E07               	movwf	_count_change_time^0,c
  2173  0009C6  0E00               	movlw	0
  2174  0009C8  2008               	addwfc	(_count_change_time+1)^0,w,c
  2175  0009CA  6E08               	movwf	(_count_change_time+1)^0,c
  2176                           
  2177                           ;solution02_lab03.c: 278:             if (count_change_time == (396/5)){
  2178  0009CC  0E4F               	movlw	79
  2179  0009CE  1807               	xorwf	_count_change_time^0,w,c
  2180  0009D0  1008               	iorwf	(_count_change_time+1)^0,w,c
  2181  0009D2  A4D8               	btfss	status,2,c
  2182  0009D4  EFEE  F004         	goto	i2u145_41
  2183  0009D8  EFF0  F004         	goto	i2u145_40
  2184  0009DC                     i2u145_41:
  2185  0009DC  EF10  F005         	goto	i2l421
  2186  0009E0                     i2u145_40:
  2187  0009E0                     
  2188                           ;solution02_lab03.c: 279:                 count_change_time = 0;
  2189  0009E0  0E00               	movlw	0
  2190  0009E2  6E08               	movwf	(_count_change_time+1)^0,c
  2191  0009E4  0E00               	movlw	0
  2192  0009E6  6E07               	movwf	_count_change_time^0,c
  2193  0009E8                     
  2194                           ;solution02_lab03.c: 280:                 sec = sec + 1;
  2195  0009E8  281C               	incf	_sec^0,w,c	;volatile
  2196  0009EA  6E1C               	movwf	_sec^0,c	;volatile
  2197  0009EC                     
  2198                           ;solution02_lab03.c: 281:                 if (sec > 59){
  2199  0009EC  0E3B               	movlw	59
  2200  0009EE  641C               	cpfsgt	_sec^0,c	;volatile
  2201  0009F0  EFFC  F004         	goto	i2u146_41
  2202  0009F4  EFFE  F004         	goto	i2u146_40
  2203  0009F8                     i2u146_41:
  2204  0009F8  EF00  F005         	goto	i2l419
  2205  0009FC                     i2u146_40:
  2206  0009FC                     
  2207                           ;solution02_lab03.c: 282:                     sec = 0;
  2208  0009FC  0E00               	movlw	0
  2209  0009FE  6E1C               	movwf	_sec^0,c	;volatile
  2210  000A00                     i2l419:
  2211                           
  2212                           ;solution02_lab03.c: 284:                 flag_change_normal_sec = 1;
  2213  000A00  0E01               	movlw	1
  2214  000A02  6E18               	movwf	_flag_change_normal_sec^0,c
  2215  000A04                     
  2216                           ;solution02_lab03.c: 285:                 display_normal_clock();
  2217  000A04  EC09  F000         	call	_display_normal_clock	;wreg free
  2218  000A08  EF10  F005         	goto	i2l421
  2219  000A0C                     i2l2479:
  2220                           
  2221                           ;solution02_lab03.c: 290:         RB0flag = 0;
  2222  000A0C  0E00               	movlw	0
  2223  000A0E  6E16               	movwf	_RB0flag^0,c
  2224                           
  2225                           ;solution02_lab03.c: 291:         RB0_press_count = 0;
  2226  000A10  0E00               	movlw	0
  2227  000A12  6E0A               	movwf	(_RB0_press_count+1)^0,c
  2228  000A14  0E00               	movlw	0
  2229  000A16  6E09               	movwf	_RB0_press_count^0,c
  2230                           
  2231                           ;solution02_lab03.c: 292:         count_change_time = 0;
  2232  000A18  0E00               	movlw	0
  2233  000A1A  6E08               	movwf	(_count_change_time+1)^0,c
  2234  000A1C  0E00               	movlw	0
  2235  000A1E  6E07               	movwf	_count_change_time^0,c
  2236  000A20                     i2l421:
  2237  000A20  0012               	return		;funcret
  2238  000A22                     __end_of_modify_sec:
  2239                           	opt callstack 0
  2240                           
  2241 ;; *************** function _modify_min *****************
  2242 ;; Defined at:
  2243 ;;		line 232 in file "solution02_lab03.c"
  2244 ;; Parameters:    Size  Location     Type
  2245 ;;		None
  2246 ;; Auto vars:     Size  Location     Type
  2247 ;;		None
  2248 ;; Return value:  Size  Location     Type
  2249 ;;                  1    wreg      void 
  2250 ;; Registers used:
  2251 ;;		wreg, status,2, status,0, cstack
  2252 ;; Tracked objects:
  2253 ;;		On entry : 0/0
  2254 ;;		On exit  : 0/0
  2255 ;;		Unchanged: 0/0
  2256 ;; Data sizes:     COMRAM   BANK0   BANK1   BANK2   BANK3   BANK4   BANK5   BANK6   BANK7   BANK8   BANK9  BANK10  BANK1
      +1  BANK12  BANK13  BANK14  BANK15
  2257 ;;      Params:         0       0       0       0       0       0       0       0       0       0       0       0       
      +0       0       0       0       0
  2258 ;;      Locals:         0       0       0       0       0       0       0       0       0       0       0       0       
      +0       0       0       0       0
  2259 ;;      Temps:          0       0       0       0       0       0       0       0       0       0       0       0       
      +0       0       0       0       0
  2260 ;;      Totals:         0       0       0       0       0       0       0       0       0       0       0       0       
      +0       0       0       0       0
  2261 ;;Total ram usage:        0 bytes
  2262 ;; Hardware stack levels used:    1
  2263 ;; Hardware stack levels required when called:    4
  2264 ;; This function calls:
  2265 ;;		_display_normal_clock
  2266 ;; This function is called by:
  2267 ;;		_FSM_of_me
  2268 ;; This function uses a non-reentrant model
  2269 ;;
  2270                           
  2271                           	psect	text19
  2272  000A22                     __ptext19:
  2273                           	opt callstack 0
  2274  000A22                     _modify_min:
  2275                           	opt callstack 20
  2276  000A22                     
  2277                           ;solution02_lab03.c: 233:     if (PORTBbits.RB0 == 0){
  2278  000A22  B081               	btfsc	129,0,c	;volatile
  2279  000A24  EF16  F005         	goto	i2u135_41
  2280  000A28  EF18  F005         	goto	i2u135_40
  2281  000A2C                     i2u135_41:
  2282  000A2C  EF6C  F005         	goto	i2l2447
  2283  000A30                     i2u135_40:
  2284  000A30                     
  2285                           ;solution02_lab03.c: 234:         RB0_press_count = RB0_press_count + 1;
  2286  000A30  0E01               	movlw	1
  2287  000A32  2409               	addwf	_RB0_press_count^0,w,c
  2288  000A34  6E09               	movwf	_RB0_press_count^0,c
  2289  000A36  0E00               	movlw	0
  2290  000A38  200A               	addwfc	(_RB0_press_count+1)^0,w,c
  2291  000A3A  6E0A               	movwf	(_RB0_press_count+1)^0,c
  2292  000A3C                     
  2293                           ;solution02_lab03.c: 235:         if (RB0flag == 0){
  2294  000A3C  5016               	movf	_RB0flag^0,w,c
  2295  000A3E  A4D8               	btfss	status,2,c
  2296  000A40  EF24  F005         	goto	i2u136_41
  2297  000A44  EF26  F005         	goto	i2u136_40
  2298  000A48                     i2u136_41:
  2299  000A48  EF38  F005         	goto	i2l2433
  2300  000A4C                     i2u136_40:
  2301  000A4C                     
  2302                           ;solution02_lab03.c: 236:             RB0flag = 1;
  2303  000A4C  0E01               	movlw	1
  2304  000A4E  6E16               	movwf	_RB0flag^0,c
  2305  000A50                     
  2306                           ;solution02_lab03.c: 237:             min = min + 1;
  2307  000A50  281D               	incf	_min^0,w,c	;volatile
  2308  000A52  6E1D               	movwf	_min^0,c	;volatile
  2309  000A54                     
  2310                           ;solution02_lab03.c: 238:             if (min > 59){
  2311  000A54  0E3B               	movlw	59
  2312  000A56  641D               	cpfsgt	_min^0,c	;volatile
  2313  000A58  EF30  F005         	goto	i2u137_41
  2314  000A5C  EF32  F005         	goto	i2u137_40
  2315  000A60                     i2u137_41:
  2316  000A60  EF34  F005         	goto	i2l406
  2317  000A64                     i2u137_40:
  2318  000A64                     
  2319                           ;solution02_lab03.c: 239:             min = 0;
  2320  000A64  0E00               	movlw	0
  2321  000A66  6E1D               	movwf	_min^0,c	;volatile
  2322  000A68                     i2l406:
  2323                           
  2324                           ;solution02_lab03.c: 241:             flag_change_normal_min = 1;
  2325  000A68  0E01               	movlw	1
  2326  000A6A  6E19               	movwf	_flag_change_normal_min^0,c
  2327  000A6C                     
  2328                           ;solution02_lab03.c: 242:             display_normal_clock();
  2329  000A6C  EC09  F000         	call	_display_normal_clock	;wreg free
  2330  000A70                     i2l2433:
  2331                           
  2332                           ;solution02_lab03.c: 244:         if (RB0_press_count > 396){
  2333  000A70  BE0A               	btfsc	(_RB0_press_count+1)^0,7,c
  2334  000A72  EF44  F005         	goto	i2u138_41
  2335  000A76  0E8D               	movlw	141
  2336  000A78  5C09               	subwf	_RB0_press_count^0,w,c
  2337  000A7A  0E01               	movlw	1
  2338  000A7C  580A               	subwfb	(_RB0_press_count+1)^0,w,c
  2339  000A7E  A0D8               	btfss	status,0,c
  2340  000A80  EF44  F005         	goto	i2u138_41
  2341  000A84  EF46  F005         	goto	i2u138_40
  2342  000A88                     i2u138_41:
  2343  000A88  EF76  F005         	goto	i2l411
  2344  000A8C                     i2u138_40:
  2345  000A8C                     
  2346                           ;solution02_lab03.c: 245:             count_change_time = count_change_time + 1;
  2347  000A8C  0E01               	movlw	1
  2348  000A8E  2407               	addwf	_count_change_time^0,w,c
  2349  000A90  6E07               	movwf	_count_change_time^0,c
  2350  000A92  0E00               	movlw	0
  2351  000A94  2008               	addwfc	(_count_change_time+1)^0,w,c
  2352  000A96  6E08               	movwf	(_count_change_time+1)^0,c
  2353                           
  2354                           ;solution02_lab03.c: 246:             if (count_change_time == (396/5)){
  2355  000A98  0E4F               	movlw	79
  2356  000A9A  1807               	xorwf	_count_change_time^0,w,c
  2357  000A9C  1008               	iorwf	(_count_change_time+1)^0,w,c
  2358  000A9E  A4D8               	btfss	status,2,c
  2359  000AA0  EF54  F005         	goto	i2u139_41
  2360  000AA4  EF56  F005         	goto	i2u139_40
  2361  000AA8                     i2u139_41:
  2362  000AA8  EF76  F005         	goto	i2l411
  2363  000AAC                     i2u139_40:
  2364  000AAC                     
  2365                           ;solution02_lab03.c: 247:                 count_change_time = 0;
  2366  000AAC  0E00               	movlw	0
  2367  000AAE  6E08               	movwf	(_count_change_time+1)^0,c
  2368  000AB0  0E00               	movlw	0
  2369  000AB2  6E07               	movwf	_count_change_time^0,c
  2370  000AB4                     
  2371                           ;solution02_lab03.c: 248:                 min = min + 1;
  2372  000AB4  281D               	incf	_min^0,w,c	;volatile
  2373  000AB6  6E1D               	movwf	_min^0,c	;volatile
  2374  000AB8                     
  2375                           ;solution02_lab03.c: 249:                 if (min > 59){
  2376  000AB8  0E3B               	movlw	59
  2377  000ABA  641D               	cpfsgt	_min^0,c	;volatile
  2378  000ABC  EF62  F005         	goto	i2u140_41
  2379  000AC0  EF64  F005         	goto	i2u140_40
  2380  000AC4                     i2u140_41:
  2381  000AC4  EF66  F005         	goto	i2l409
  2382  000AC8                     i2u140_40:
  2383  000AC8                     
  2384                           ;solution02_lab03.c: 250:                     min = 0;
  2385  000AC8  0E00               	movlw	0
  2386  000ACA  6E1D               	movwf	_min^0,c	;volatile
  2387  000ACC                     i2l409:
  2388                           
  2389                           ;solution02_lab03.c: 252:                 flag_change_normal_min = 1;
  2390  000ACC  0E01               	movlw	1
  2391  000ACE  6E19               	movwf	_flag_change_normal_min^0,c
  2392  000AD0                     
  2393                           ;solution02_lab03.c: 253:                 display_normal_clock();
  2394  000AD0  EC09  F000         	call	_display_normal_clock	;wreg free
  2395  000AD4  EF76  F005         	goto	i2l411
  2396  000AD8                     i2l2447:
  2397                           
  2398                           ;solution02_lab03.c: 258:         RB0flag = 0;
  2399  000AD8  0E00               	movlw	0
  2400  000ADA  6E16               	movwf	_RB0flag^0,c
  2401                           
  2402                           ;solution02_lab03.c: 259:         RB0_press_count = 0;
  2403  000ADC  0E00               	movlw	0
  2404  000ADE  6E0A               	movwf	(_RB0_press_count+1)^0,c
  2405  000AE0  0E00               	movlw	0
  2406  000AE2  6E09               	movwf	_RB0_press_count^0,c
  2407                           
  2408                           ;solution02_lab03.c: 260:         count_change_time = 0;
  2409  000AE4  0E00               	movlw	0
  2410  000AE6  6E08               	movwf	(_count_change_time+1)^0,c
  2411  000AE8  0E00               	movlw	0
  2412  000AEA  6E07               	movwf	_count_change_time^0,c
  2413  000AEC                     i2l411:
  2414  000AEC  0012               	return		;funcret
  2415  000AEE                     __end_of_modify_min:
  2416                           	opt callstack 0
  2417                           
  2418 ;; *************** function _modify_hour *****************
  2419 ;; Defined at:
  2420 ;;		line 200 in file "solution02_lab03.c"
  2421 ;; Parameters:    Size  Location     Type
  2422 ;;		None
  2423 ;; Auto vars:     Size  Location     Type
  2424 ;;		None
  2425 ;; Return value:  Size  Location     Type
  2426 ;;                  1    wreg      void 
  2427 ;; Registers used:
  2428 ;;		wreg, status,2, status,0, cstack
  2429 ;; Tracked objects:
  2430 ;;		On entry : 0/0
  2431 ;;		On exit  : 0/0
  2432 ;;		Unchanged: 0/0
  2433 ;; Data sizes:     COMRAM   BANK0   BANK1   BANK2   BANK3   BANK4   BANK5   BANK6   BANK7   BANK8   BANK9  BANK10  BANK1
      +1  BANK12  BANK13  BANK14  BANK15
  2434 ;;      Params:         0       0       0       0       0       0       0       0       0       0       0       0       
      +0       0       0       0       0
  2435 ;;      Locals:         0       0       0       0       0       0       0       0       0       0       0       0       
      +0       0       0       0       0
  2436 ;;      Temps:          0       0       0       0       0       0       0       0       0       0       0       0       
      +0       0       0       0       0
  2437 ;;      Totals:         0       0       0       0       0       0       0       0       0       0       0       0       
      +0       0       0       0       0
  2438 ;;Total ram usage:        0 bytes
  2439 ;; Hardware stack levels used:    1
  2440 ;; Hardware stack levels required when called:    4
  2441 ;; This function calls:
  2442 ;;		_display_normal_clock
  2443 ;; This function is called by:
  2444 ;;		_FSM_of_me
  2445 ;; This function uses a non-reentrant model
  2446 ;;
  2447                           
  2448                           	psect	text20
  2449  000AEE                     __ptext20:
  2450                           	opt callstack 0
  2451  000AEE                     _modify_hour:
  2452                           	opt callstack 20
  2453  000AEE                     
  2454                           ;solution02_lab03.c: 201:     if (PORTBbits.RB0 == 0){
  2455  000AEE  B081               	btfsc	129,0,c	;volatile
  2456  000AF0  EF7C  F005         	goto	i2u129_41
  2457  000AF4  EF7E  F005         	goto	i2u129_40
  2458  000AF8                     i2u129_41:
  2459  000AF8  EFD2  F005         	goto	i2l2415
  2460  000AFC                     i2u129_40:
  2461  000AFC                     
  2462                           ;solution02_lab03.c: 202:         RB0_press_count = RB0_press_count + 1;
  2463  000AFC  0E01               	movlw	1
  2464  000AFE  2409               	addwf	_RB0_press_count^0,w,c
  2465  000B00  6E09               	movwf	_RB0_press_count^0,c
  2466  000B02  0E00               	movlw	0
  2467  000B04  200A               	addwfc	(_RB0_press_count+1)^0,w,c
  2468  000B06  6E0A               	movwf	(_RB0_press_count+1)^0,c
  2469  000B08                     
  2470                           ;solution02_lab03.c: 203:         if (RB0flag == 0){
  2471  000B08  5016               	movf	_RB0flag^0,w,c
  2472  000B0A  A4D8               	btfss	status,2,c
  2473  000B0C  EF8A  F005         	goto	i2u130_41
  2474  000B10  EF8C  F005         	goto	i2u130_40
  2475  000B14                     i2u130_41:
  2476  000B14  EF9E  F005         	goto	i2l2401
  2477  000B18                     i2u130_40:
  2478  000B18                     
  2479                           ;solution02_lab03.c: 204:             RB0flag = 1;
  2480  000B18  0E01               	movlw	1
  2481  000B1A  6E16               	movwf	_RB0flag^0,c
  2482  000B1C                     
  2483                           ;solution02_lab03.c: 205:             hr = hr + 1;
  2484  000B1C  281E               	incf	_hr^0,w,c	;volatile
  2485  000B1E  6E1E               	movwf	_hr^0,c	;volatile
  2486  000B20                     
  2487                           ;solution02_lab03.c: 206:             if (hr > 23){
  2488  000B20  0E17               	movlw	23
  2489  000B22  641E               	cpfsgt	_hr^0,c	;volatile
  2490  000B24  EF96  F005         	goto	i2u131_41
  2491  000B28  EF98  F005         	goto	i2u131_40
  2492  000B2C                     i2u131_41:
  2493  000B2C  EF9A  F005         	goto	i2l396
  2494  000B30                     i2u131_40:
  2495  000B30                     
  2496                           ;solution02_lab03.c: 207:             hr = 0;
  2497  000B30  0E00               	movlw	0
  2498  000B32  6E1E               	movwf	_hr^0,c	;volatile
  2499  000B34                     i2l396:
  2500                           
  2501                           ;solution02_lab03.c: 209:             flag_change_normal_hour = 1;
  2502  000B34  0E01               	movlw	1
  2503  000B36  6E1A               	movwf	_flag_change_normal_hour^0,c
  2504  000B38                     
  2505                           ;solution02_lab03.c: 210:             display_normal_clock();
  2506  000B38  EC09  F000         	call	_display_normal_clock	;wreg free
  2507  000B3C                     i2l2401:
  2508                           
  2509                           ;solution02_lab03.c: 212:         if (RB0_press_count > 396){
  2510  000B3C  BE0A               	btfsc	(_RB0_press_count+1)^0,7,c
  2511  000B3E  EFAA  F005         	goto	i2u132_41
  2512  000B42  0E8D               	movlw	141
  2513  000B44  5C09               	subwf	_RB0_press_count^0,w,c
  2514  000B46  0E01               	movlw	1
  2515  000B48  580A               	subwfb	(_RB0_press_count+1)^0,w,c
  2516  000B4A  A0D8               	btfss	status,0,c
  2517  000B4C  EFAA  F005         	goto	i2u132_41
  2518  000B50  EFAC  F005         	goto	i2u132_40
  2519  000B54                     i2u132_41:
  2520  000B54  EFDC  F005         	goto	i2l401
  2521  000B58                     i2u132_40:
  2522  000B58                     
  2523                           ;solution02_lab03.c: 213:             count_change_time = count_change_time + 1;
  2524  000B58  0E01               	movlw	1
  2525  000B5A  2407               	addwf	_count_change_time^0,w,c
  2526  000B5C  6E07               	movwf	_count_change_time^0,c
  2527  000B5E  0E00               	movlw	0
  2528  000B60  2008               	addwfc	(_count_change_time+1)^0,w,c
  2529  000B62  6E08               	movwf	(_count_change_time+1)^0,c
  2530                           
  2531                           ;solution02_lab03.c: 214:             if (count_change_time == (396/5)){
  2532  000B64  0E4F               	movlw	79
  2533  000B66  1807               	xorwf	_count_change_time^0,w,c
  2534  000B68  1008               	iorwf	(_count_change_time+1)^0,w,c
  2535  000B6A  A4D8               	btfss	status,2,c
  2536  000B6C  EFBA  F005         	goto	i2u133_41
  2537  000B70  EFBC  F005         	goto	i2u133_40
  2538  000B74                     i2u133_41:
  2539  000B74  EFDC  F005         	goto	i2l401
  2540  000B78                     i2u133_40:
  2541  000B78                     
  2542                           ;solution02_lab03.c: 215:                 count_change_time = 0;
  2543  000B78  0E00               	movlw	0
  2544  000B7A  6E08               	movwf	(_count_change_time+1)^0,c
  2545  000B7C  0E00               	movlw	0
  2546  000B7E  6E07               	movwf	_count_change_time^0,c
  2547  000B80                     
  2548                           ;solution02_lab03.c: 216:                 hr = hr + 1;
  2549  000B80  281E               	incf	_hr^0,w,c	;volatile
  2550  000B82  6E1E               	movwf	_hr^0,c	;volatile
  2551  000B84                     
  2552                           ;solution02_lab03.c: 217:                 if (hr > 23){
  2553  000B84  0E17               	movlw	23
  2554  000B86  641E               	cpfsgt	_hr^0,c	;volatile
  2555  000B88  EFC8  F005         	goto	i2u134_41
  2556  000B8C  EFCA  F005         	goto	i2u134_40
  2557  000B90                     i2u134_41:
  2558  000B90  EFCC  F005         	goto	i2l399
  2559  000B94                     i2u134_40:
  2560  000B94                     
  2561                           ;solution02_lab03.c: 218:                     hr = 0;
  2562  000B94  0E00               	movlw	0
  2563  000B96  6E1E               	movwf	_hr^0,c	;volatile
  2564  000B98                     i2l399:
  2565                           
  2566                           ;solution02_lab03.c: 220:                 flag_change_normal_hour = 1;
  2567  000B98  0E01               	movlw	1
  2568  000B9A  6E1A               	movwf	_flag_change_normal_hour^0,c
  2569  000B9C                     
  2570                           ;solution02_lab03.c: 221:                 display_normal_clock();
  2571  000B9C  EC09  F000         	call	_display_normal_clock	;wreg free
  2572  000BA0  EFDC  F005         	goto	i2l401
  2573  000BA4                     i2l2415:
  2574                           
  2575                           ;solution02_lab03.c: 226:         RB0flag = 0;
  2576  000BA4  0E00               	movlw	0
  2577  000BA6  6E16               	movwf	_RB0flag^0,c
  2578                           
  2579                           ;solution02_lab03.c: 227:         RB0_press_count = 0;
  2580  000BA8  0E00               	movlw	0
  2581  000BAA  6E0A               	movwf	(_RB0_press_count+1)^0,c
  2582  000BAC  0E00               	movlw	0
  2583  000BAE  6E09               	movwf	_RB0_press_count^0,c
  2584                           
  2585                           ;solution02_lab03.c: 228:         count_change_time = 0;
  2586  000BB0  0E00               	movlw	0
  2587  000BB2  6E08               	movwf	(_count_change_time+1)^0,c
  2588  000BB4  0E00               	movlw	0
  2589  000BB6  6E07               	movwf	_count_change_time^0,c
  2590  000BB8                     i2l401:
  2591  000BB8  0012               	return		;funcret
  2592  000BBA                     __end_of_modify_hour:
  2593                           	opt callstack 0
  2594                           
  2595 ;; *************** function _display_normal_clock *****************
  2596 ;; Defined at:
  2597 ;;		line 3 in file "solution02_lab03.c"
  2598 ;; Parameters:    Size  Location     Type
  2599 ;;		None
  2600 ;; Auto vars:     Size  Location     Type
  2601 ;;		None
  2602 ;; Return value:  Size  Location     Type
  2603 ;;                  1    wreg      void 
  2604 ;; Registers used:
  2605 ;;		wreg, status,2, status,0, cstack
  2606 ;; Tracked objects:
  2607 ;;		On entry : 0/0
  2608 ;;		On exit  : 0/0
  2609 ;;		Unchanged: 0/0
  2610 ;; Data sizes:     COMRAM   BANK0   BANK1   BANK2   BANK3   BANK4   BANK5   BANK6   BANK7   BANK8   BANK9  BANK10  BANK1
      +1  BANK12  BANK13  BANK14  BANK15
  2611 ;;      Params:         0       0       0       0       0       0       0       0       0       0       0       0       
      +0       0       0       0       0
  2612 ;;      Locals:         0       0       0       0       0       0       0       0       0       0       0       0       
      +0       0       0       0       0
  2613 ;;      Temps:          2       0       0       0       0       0       0       0       0       0       0       0       
      +0       0       0       0       0
  2614 ;;      Totals:         2       0       0       0       0       0       0       0       0       0       0       0       
      +0       0       0       0       0
  2615 ;;Total ram usage:        2 bytes
  2616 ;; Hardware stack levels used:    1
  2617 ;; Hardware stack levels required when called:    3
  2618 ;; This function calls:
  2619 ;;		_LCDPutChar
  2620 ;;		___awdiv
  2621 ;;		___awmod
  2622 ;;		i2_LCDPutInst
  2623 ;; This function is called by:
  2624 ;;		_modify_hour
  2625 ;;		_modify_min
  2626 ;;		_modify_sec
  2627 ;;		_FSM_of_me
  2628 ;; This function uses a non-reentrant model
  2629 ;;
  2630                           
  2631                           	psect	text21
  2632  000012                     __ptext21:
  2633                           	opt callstack 0
  2634  000012                     _display_normal_clock:
  2635                           	opt callstack 20
  2636  000012                     
  2637                           ;solution02_lab03.c: 4:     switch(current_state){
  2638  000012  EFA1  F003         	goto	i2l2361
  2639  000016                     i2l2131:
  2640                           
  2641                           ;solution02_lab03.c: 7:             if (flag_for_dot_dot == 0){
  2642  000016  501B               	movf	_flag_for_dot_dot^0,w,c
  2643  000018  A4D8               	btfss	status,2,c
  2644  00001A  EF11  F000         	goto	i2u104_41
  2645  00001E  EF13  F000         	goto	i2u104_40
  2646  000022                     i2u104_41:
  2647  000022  EF6C  F000         	goto	i2l2153
  2648  000026                     i2u104_40:
  2649  000026                     
  2650                           ;solution02_lab03.c: 8:                 flag_for_dot_dot = 1;
  2651  000026  0E01               	movlw	1
  2652  000028  6E1B               	movwf	_flag_for_dot_dot^0,c
  2653  00002A                     
  2654                           ;solution02_lab03.c: 9:                 LCDPutInst(0x80);
  2655  00002A  0E80               	movlw	128
  2656  00002C  EC2C  F008         	call	i2_LCDPutInst
  2657  000030                     
  2658                           ;solution02_lab03.c: 10:                 LCDPutChar(hr/10+'0');
  2659  000030  C01E  F01F         	movff	_hr,___awdiv@dividend	;volatile
  2660  000034  6A20               	clrf	(___awdiv@dividend+1)^0,c
  2661  000036  0E00               	movlw	0
  2662  000038  6E22               	movwf	(___awdiv@divisor+1)^0,c
  2663  00003A  0E0A               	movlw	10
  2664  00003C  6E21               	movwf	___awdiv@divisor^0,c
  2665  00003E  ECDD  F005         	call	___awdiv	;wreg free
  2666  000042  501F               	movf	?___awdiv^0,w,c
  2667  000044  0F30               	addlw	48
  2668  000046  EC5F  F008         	call	_LCDPutChar
  2669  00004A                     
  2670                           ;solution02_lab03.c: 11:                 LCDPutChar(hr%10+'0');
  2671  00004A  C01E  F01F         	movff	_hr,___awmod@dividend	;volatile
  2672  00004E  6A20               	clrf	(___awmod@dividend+1)^0,c
  2673  000050  0E00               	movlw	0
  2674  000052  6E22               	movwf	(___awmod@divisor+1)^0,c
  2675  000054  0E0A               	movlw	10
  2676  000056  6E21               	movwf	___awmod@divisor^0,c
  2677  000058  ECF3  F006         	call	___awmod	;wreg free
  2678  00005C  501F               	movf	?___awmod^0,w,c
  2679  00005E  0F30               	addlw	48
  2680  000060  EC5F  F008         	call	_LCDPutChar
  2681  000064                     
  2682                           ;solution02_lab03.c: 12:                 LCDPutChar(':');
  2683  000064  0E3A               	movlw	58
  2684  000066  EC5F  F008         	call	_LCDPutChar
  2685  00006A                     
  2686                           ;solution02_lab03.c: 13:                 LCDPutChar(min/10+'0');
  2687  00006A  C01D  F01F         	movff	_min,___awdiv@dividend	;volatile
  2688  00006E  6A20               	clrf	(___awdiv@dividend+1)^0,c
  2689  000070  0E00               	movlw	0
  2690  000072  6E22               	movwf	(___awdiv@divisor+1)^0,c
  2691  000074  0E0A               	movlw	10
  2692  000076  6E21               	movwf	___awdiv@divisor^0,c
  2693  000078  ECDD  F005         	call	___awdiv	;wreg free
  2694  00007C  501F               	movf	?___awdiv^0,w,c
  2695  00007E  0F30               	addlw	48
  2696  000080  EC5F  F008         	call	_LCDPutChar
  2697  000084                     
  2698                           ;solution02_lab03.c: 14:                 LCDPutChar(min%10+'0');
  2699  000084  C01D  F01F         	movff	_min,___awmod@dividend	;volatile
  2700  000088  6A20               	clrf	(___awmod@dividend+1)^0,c
  2701  00008A  0E00               	movlw	0
  2702  00008C  6E22               	movwf	(___awmod@divisor+1)^0,c
  2703  00008E  0E0A               	movlw	10
  2704  000090  6E21               	movwf	___awmod@divisor^0,c
  2705  000092  ECF3  F006         	call	___awmod	;wreg free
  2706  000096  501F               	movf	?___awmod^0,w,c
  2707  000098  0F30               	addlw	48
  2708  00009A  EC5F  F008         	call	_LCDPutChar
  2709  00009E                     
  2710                           ;solution02_lab03.c: 15:                 LCDPutChar(':');
  2711  00009E  0E3A               	movlw	58
  2712  0000A0  EC5F  F008         	call	_LCDPutChar
  2713  0000A4                     
  2714                           ;solution02_lab03.c: 16:                 LCDPutChar(sec/10+'0');
  2715  0000A4  C01C  F01F         	movff	_sec,___awdiv@dividend	;volatile
  2716  0000A8  6A20               	clrf	(___awdiv@dividend+1)^0,c
  2717  0000AA  0E00               	movlw	0
  2718  0000AC  6E22               	movwf	(___awdiv@divisor+1)^0,c
  2719  0000AE  0E0A               	movlw	10
  2720  0000B0  6E21               	movwf	___awdiv@divisor^0,c
  2721  0000B2  ECDD  F005         	call	___awdiv	;wreg free
  2722  0000B6  501F               	movf	?___awdiv^0,w,c
  2723  0000B8  0F30               	addlw	48
  2724  0000BA  EC5F  F008         	call	_LCDPutChar
  2725  0000BE                     
  2726                           ;solution02_lab03.c: 17:                 LCDPutChar(sec%10+'0');
  2727  0000BE  C01C  F01F         	movff	_sec,___awmod@dividend	;volatile
  2728  0000C2  6A20               	clrf	(___awmod@dividend+1)^0,c
  2729  0000C4  0E00               	movlw	0
  2730  0000C6  6E22               	movwf	(___awmod@divisor+1)^0,c
  2731  0000C8  0E0A               	movlw	10
  2732  0000CA  6E21               	movwf	___awmod@divisor^0,c
  2733  0000CC  ECF3  F006         	call	___awmod	;wreg free
  2734  0000D0  501F               	movf	?___awmod^0,w,c
  2735  0000D2  0F30               	addlw	48
  2736  0000D4  EC5F  F008         	call	_LCDPutChar
  2737  0000D8                     i2l2153:
  2738                           
  2739                           ;solution02_lab03.c: 20:             if (flag_change_normal_sec == 1){
  2740  0000D8  0418               	decf	_flag_change_normal_sec^0,w,c
  2741  0000DA  A4D8               	btfss	status,2,c
  2742  0000DC  EF72  F000         	goto	i2u105_41
  2743  0000E0  EF74  F000         	goto	i2u105_40
  2744  0000E4                     i2u105_41:
  2745  0000E4  EF93  F000         	goto	i2l2163
  2746  0000E8                     i2u105_40:
  2747  0000E8                     
  2748                           ;solution02_lab03.c: 21:                 flag_change_normal_sec = 0;
  2749  0000E8  0E00               	movlw	0
  2750  0000EA  6E18               	movwf	_flag_change_normal_sec^0,c
  2751  0000EC                     
  2752                           ;solution02_lab03.c: 22:                 LCDPutInst(0x86);
  2753  0000EC  0E86               	movlw	134
  2754  0000EE  EC2C  F008         	call	i2_LCDPutInst
  2755  0000F2                     
  2756                           ;solution02_lab03.c: 23:                 LCDPutChar(sec/10+'0');
  2757  0000F2  C01C  F01F         	movff	_sec,___awdiv@dividend	;volatile
  2758  0000F6  6A20               	clrf	(___awdiv@dividend+1)^0,c
  2759  0000F8  0E00               	movlw	0
  2760  0000FA  6E22               	movwf	(___awdiv@divisor+1)^0,c
  2761  0000FC  0E0A               	movlw	10
  2762  0000FE  6E21               	movwf	___awdiv@divisor^0,c
  2763  000100  ECDD  F005         	call	___awdiv	;wreg free
  2764  000104  501F               	movf	?___awdiv^0,w,c
  2765  000106  0F30               	addlw	48
  2766  000108  EC5F  F008         	call	_LCDPutChar
  2767  00010C                     
  2768                           ;solution02_lab03.c: 24:                 LCDPutChar(sec%10+'0');
  2769  00010C  C01C  F01F         	movff	_sec,___awmod@dividend	;volatile
  2770  000110  6A20               	clrf	(___awmod@dividend+1)^0,c
  2771  000112  0E00               	movlw	0
  2772  000114  6E22               	movwf	(___awmod@divisor+1)^0,c
  2773  000116  0E0A               	movlw	10
  2774  000118  6E21               	movwf	___awmod@divisor^0,c
  2775  00011A  ECF3  F006         	call	___awmod	;wreg free
  2776  00011E  501F               	movf	?___awmod^0,w,c
  2777  000120  0F30               	addlw	48
  2778  000122  EC5F  F008         	call	_LCDPutChar
  2779  000126                     i2l2163:
  2780                           
  2781                           ;solution02_lab03.c: 26:             if (flag_change_normal_min == 1){
  2782  000126  0419               	decf	_flag_change_normal_min^0,w,c
  2783  000128  A4D8               	btfss	status,2,c
  2784  00012A  EF99  F000         	goto	i2u106_41
  2785  00012E  EF9B  F000         	goto	i2u106_40
  2786  000132                     i2u106_41:
  2787  000132  EFBA  F000         	goto	i2l2173
  2788  000136                     i2u106_40:
  2789  000136                     
  2790                           ;solution02_lab03.c: 27:                 flag_change_normal_min = 0;
  2791  000136  0E00               	movlw	0
  2792  000138  6E19               	movwf	_flag_change_normal_min^0,c
  2793  00013A                     
  2794                           ;solution02_lab03.c: 28:                 LCDPutInst(0x83);
  2795  00013A  0E83               	movlw	131
  2796  00013C  EC2C  F008         	call	i2_LCDPutInst
  2797  000140                     
  2798                           ;solution02_lab03.c: 29:                 LCDPutChar(min/10+'0');
  2799  000140  C01D  F01F         	movff	_min,___awdiv@dividend	;volatile
  2800  000144  6A20               	clrf	(___awdiv@dividend+1)^0,c
  2801  000146  0E00               	movlw	0
  2802  000148  6E22               	movwf	(___awdiv@divisor+1)^0,c
  2803  00014A  0E0A               	movlw	10
  2804  00014C  6E21               	movwf	___awdiv@divisor^0,c
  2805  00014E  ECDD  F005         	call	___awdiv	;wreg free
  2806  000152  501F               	movf	?___awdiv^0,w,c
  2807  000154  0F30               	addlw	48
  2808  000156  EC5F  F008         	call	_LCDPutChar
  2809  00015A                     
  2810                           ;solution02_lab03.c: 30:                 LCDPutChar(min%10+'0');
  2811  00015A  C01D  F01F         	movff	_min,___awmod@dividend	;volatile
  2812  00015E  6A20               	clrf	(___awmod@dividend+1)^0,c
  2813  000160  0E00               	movlw	0
  2814  000162  6E22               	movwf	(___awmod@divisor+1)^0,c
  2815  000164  0E0A               	movlw	10
  2816  000166  6E21               	movwf	___awmod@divisor^0,c
  2817  000168  ECF3  F006         	call	___awmod	;wreg free
  2818  00016C  501F               	movf	?___awmod^0,w,c
  2819  00016E  0F30               	addlw	48
  2820  000170  EC5F  F008         	call	_LCDPutChar
  2821  000174                     i2l2173:
  2822                           
  2823                           ;solution02_lab03.c: 32:             if (flag_change_normal_hour == 1){
  2824  000174  041A               	decf	_flag_change_normal_hour^0,w,c
  2825  000176  A4D8               	btfss	status,2,c
  2826  000178  EFC0  F000         	goto	i2u107_41
  2827  00017C  EFC2  F000         	goto	i2u107_40
  2828  000180                     i2u107_41:
  2829  000180  EFC2  F003         	goto	i2l382
  2830  000184                     i2u107_40:
  2831  000184                     
  2832                           ;solution02_lab03.c: 33:                 flag_change_normal_hour = 0;
  2833  000184  0E00               	movlw	0
  2834  000186  6E1A               	movwf	_flag_change_normal_hour^0,c
  2835  000188                     
  2836                           ;solution02_lab03.c: 34:                 LCDPutInst(0x80);
  2837  000188  0E80               	movlw	128
  2838  00018A  EC2C  F008         	call	i2_LCDPutInst
  2839  00018E                     
  2840                           ;solution02_lab03.c: 35:                 LCDPutChar(hr/10+'0');
  2841  00018E  C01E  F01F         	movff	_hr,___awdiv@dividend	;volatile
  2842  000192  6A20               	clrf	(___awdiv@dividend+1)^0,c
  2843  000194  0E00               	movlw	0
  2844  000196  6E22               	movwf	(___awdiv@divisor+1)^0,c
  2845  000198  0E0A               	movlw	10
  2846  00019A  6E21               	movwf	___awdiv@divisor^0,c
  2847  00019C  ECDD  F005         	call	___awdiv	;wreg free
  2848  0001A0  501F               	movf	?___awdiv^0,w,c
  2849  0001A2  0F30               	addlw	48
  2850  0001A4  EC5F  F008         	call	_LCDPutChar
  2851  0001A8                     
  2852                           ;solution02_lab03.c: 36:                 LCDPutChar(hr%10+'0');
  2853  0001A8  C01E  F01F         	movff	_hr,___awmod@dividend	;volatile
  2854  0001AC  6A20               	clrf	(___awmod@dividend+1)^0,c
  2855  0001AE  0E00               	movlw	0
  2856  0001B0  6E22               	movwf	(___awmod@divisor+1)^0,c
  2857  0001B2  0E0A               	movlw	10
  2858  0001B4  6E21               	movwf	___awmod@divisor^0,c
  2859  0001B6  ECF3  F006         	call	___awmod	;wreg free
  2860  0001BA  501F               	movf	?___awmod^0,w,c
  2861  0001BC  0F30               	addlw	48
  2862  0001BE  EC5F  F008         	call	_LCDPutChar
  2863  0001C2  EFC2  F003         	goto	i2l382
  2864  0001C6                     i2l2183:
  2865                           
  2866                           ;solution02_lab03.c: 42:             if (flag_change_normal_sec == 1){
  2867  0001C6  0418               	decf	_flag_change_normal_sec^0,w,c
  2868  0001C8  A4D8               	btfss	status,2,c
  2869  0001CA  EFE9  F000         	goto	i2u108_41
  2870  0001CE  EFEB  F000         	goto	i2u108_40
  2871  0001D2                     i2u108_41:
  2872  0001D2  EF0A  F001         	goto	i2l2193
  2873  0001D6                     i2u108_40:
  2874  0001D6                     
  2875                           ;solution02_lab03.c: 43:                 flag_change_normal_sec = 0;
  2876  0001D6  0E00               	movlw	0
  2877  0001D8  6E18               	movwf	_flag_change_normal_sec^0,c
  2878  0001DA                     
  2879                           ;solution02_lab03.c: 44:                 LCDPutInst(0x86);
  2880  0001DA  0E86               	movlw	134
  2881  0001DC  EC2C  F008         	call	i2_LCDPutInst
  2882  0001E0                     
  2883                           ;solution02_lab03.c: 45:                 LCDPutChar(sec/10+'0');
  2884  0001E0  C01C  F01F         	movff	_sec,___awdiv@dividend	;volatile
  2885  0001E4  6A20               	clrf	(___awdiv@dividend+1)^0,c
  2886  0001E6  0E00               	movlw	0
  2887  0001E8  6E22               	movwf	(___awdiv@divisor+1)^0,c
  2888  0001EA  0E0A               	movlw	10
  2889  0001EC  6E21               	movwf	___awdiv@divisor^0,c
  2890  0001EE  ECDD  F005         	call	___awdiv	;wreg free
  2891  0001F2  501F               	movf	?___awdiv^0,w,c
  2892  0001F4  0F30               	addlw	48
  2893  0001F6  EC5F  F008         	call	_LCDPutChar
  2894  0001FA                     
  2895                           ;solution02_lab03.c: 46:                 LCDPutChar(sec%10+'0');
  2896  0001FA  C01C  F01F         	movff	_sec,___awmod@dividend	;volatile
  2897  0001FE  6A20               	clrf	(___awmod@dividend+1)^0,c
  2898  000200  0E00               	movlw	0
  2899  000202  6E22               	movwf	(___awmod@divisor+1)^0,c
  2900  000204  0E0A               	movlw	10
  2901  000206  6E21               	movwf	___awmod@divisor^0,c
  2902  000208  ECF3  F006         	call	___awmod	;wreg free
  2903  00020C  501F               	movf	?___awmod^0,w,c
  2904  00020E  0F30               	addlw	48
  2905  000210  EC5F  F008         	call	_LCDPutChar
  2906  000214                     i2l2193:
  2907                           
  2908                           ;solution02_lab03.c: 48:             if (flag_change_normal_min == 1){
  2909  000214  0419               	decf	_flag_change_normal_min^0,w,c
  2910  000216  A4D8               	btfss	status,2,c
  2911  000218  EF10  F001         	goto	i2u109_41
  2912  00021C  EF12  F001         	goto	i2u109_40
  2913  000220                     i2u109_41:
  2914  000220  EF31  F001         	goto	i2l2203
  2915  000224                     i2u109_40:
  2916  000224                     
  2917                           ;solution02_lab03.c: 49:                 flag_change_normal_min = 0;
  2918  000224  0E00               	movlw	0
  2919  000226  6E19               	movwf	_flag_change_normal_min^0,c
  2920  000228                     
  2921                           ;solution02_lab03.c: 50:                 LCDPutInst(0x83);
  2922  000228  0E83               	movlw	131
  2923  00022A  EC2C  F008         	call	i2_LCDPutInst
  2924  00022E                     
  2925                           ;solution02_lab03.c: 51:                 LCDPutChar(min/10+'0');
  2926  00022E  C01D  F01F         	movff	_min,___awdiv@dividend	;volatile
  2927  000232  6A20               	clrf	(___awdiv@dividend+1)^0,c
  2928  000234  0E00               	movlw	0
  2929  000236  6E22               	movwf	(___awdiv@divisor+1)^0,c
  2930  000238  0E0A               	movlw	10
  2931  00023A  6E21               	movwf	___awdiv@divisor^0,c
  2932  00023C  ECDD  F005         	call	___awdiv	;wreg free
  2933  000240  501F               	movf	?___awdiv^0,w,c
  2934  000242  0F30               	addlw	48
  2935  000244  EC5F  F008         	call	_LCDPutChar
  2936  000248                     
  2937                           ;solution02_lab03.c: 52:                 LCDPutChar(min%10+'0');
  2938  000248  C01D  F01F         	movff	_min,___awmod@dividend	;volatile
  2939  00024C  6A20               	clrf	(___awmod@dividend+1)^0,c
  2940  00024E  0E00               	movlw	0
  2941  000250  6E22               	movwf	(___awmod@divisor+1)^0,c
  2942  000252  0E0A               	movlw	10
  2943  000254  6E21               	movwf	___awmod@divisor^0,c
  2944  000256  ECF3  F006         	call	___awmod	;wreg free
  2945  00025A  501F               	movf	?___awmod^0,w,c
  2946  00025C  0F30               	addlw	48
  2947  00025E  EC5F  F008         	call	_LCDPutChar
  2948  000262                     i2l2203:
  2949                           
  2950                           ;solution02_lab03.c: 54:             if (flag_change_normal_hour == 1){
  2951  000262  041A               	decf	_flag_change_normal_hour^0,w,c
  2952  000264  A4D8               	btfss	status,2,c
  2953  000266  EF37  F001         	goto	i2u110_41
  2954  00026A  EF39  F001         	goto	i2u110_40
  2955  00026E                     i2u110_41:
  2956  00026E  EF58  F001         	goto	i2l2213
  2957  000272                     i2u110_40:
  2958  000272                     
  2959                           ;solution02_lab03.c: 55:                 flag_change_normal_hour = 0;
  2960  000272  0E00               	movlw	0
  2961  000274  6E1A               	movwf	_flag_change_normal_hour^0,c
  2962  000276                     
  2963                           ;solution02_lab03.c: 56:                 LCDPutInst(0x80);
  2964  000276  0E80               	movlw	128
  2965  000278  EC2C  F008         	call	i2_LCDPutInst
  2966  00027C                     
  2967                           ;solution02_lab03.c: 57:                 LCDPutChar(hr/10+'0');
  2968  00027C  C01E  F01F         	movff	_hr,___awdiv@dividend	;volatile
  2969  000280  6A20               	clrf	(___awdiv@dividend+1)^0,c
  2970  000282  0E00               	movlw	0
  2971  000284  6E22               	movwf	(___awdiv@divisor+1)^0,c
  2972  000286  0E0A               	movlw	10
  2973  000288  6E21               	movwf	___awdiv@divisor^0,c
  2974  00028A  ECDD  F005         	call	___awdiv	;wreg free
  2975  00028E  501F               	movf	?___awdiv^0,w,c
  2976  000290  0F30               	addlw	48
  2977  000292  EC5F  F008         	call	_LCDPutChar
  2978  000296                     
  2979                           ;solution02_lab03.c: 58:                 LCDPutChar(hr%10+'0');
  2980  000296  C01E  F01F         	movff	_hr,___awmod@dividend	;volatile
  2981  00029A  6A20               	clrf	(___awmod@dividend+1)^0,c
  2982  00029C  0E00               	movlw	0
  2983  00029E  6E22               	movwf	(___awmod@divisor+1)^0,c
  2984  0002A0  0E0A               	movlw	10
  2985  0002A2  6E21               	movwf	___awmod@divisor^0,c
  2986  0002A4  ECF3  F006         	call	___awmod	;wreg free
  2987  0002A8  501F               	movf	?___awmod^0,w,c
  2988  0002AA  0F30               	addlw	48
  2989  0002AC  EC5F  F008         	call	_LCDPutChar
  2990  0002B0                     i2l2213:
  2991                           
  2992                           ;solution02_lab03.c: 60:             blink_2sec = blink_2sec + 1;
  2993  0002B0  0E01               	movlw	1
  2994  0002B2  2405               	addwf	_blink_2sec^0,w,c
  2995  0002B4  6E05               	movwf	_blink_2sec^0,c
  2996  0002B6  0E00               	movlw	0
  2997  0002B8  2006               	addwfc	(_blink_2sec+1)^0,w,c
  2998  0002BA  6E06               	movwf	(_blink_2sec+1)^0,c
  2999  0002BC                     
  3000                           ;solution02_lab03.c: 61:             LCDPutInst(0x80);
  3001  0002BC  0E80               	movlw	128
  3002  0002BE  EC2C  F008         	call	i2_LCDPutInst
  3003  0002C2                     
  3004                           ;solution02_lab03.c: 62:             if (blink_2sec == 396/2){
  3005  0002C2  0EC6               	movlw	198
  3006  0002C4  1805               	xorwf	_blink_2sec^0,w,c
  3007  0002C6  1006               	iorwf	(_blink_2sec+1)^0,w,c
  3008  0002C8  A4D8               	btfss	status,2,c
  3009  0002CA  EF69  F001         	goto	i2u111_41
  3010  0002CE  EF6B  F001         	goto	i2u111_40
  3011  0002D2                     i2u111_41:
  3012  0002D2  EF71  F001         	goto	i2l2221
  3013  0002D6                     i2u111_40:
  3014  0002D6                     
  3015                           ;solution02_lab03.c: 63:                 LCDPutChar('_');
  3016  0002D6  0E5F               	movlw	95
  3017  0002D8  EC5F  F008         	call	_LCDPutChar
  3018                           
  3019                           ;solution02_lab03.c: 64:                 LCDPutChar('_');
  3020  0002DC  0E5F               	movlw	95
  3021  0002DE  EC5F  F008         	call	_LCDPutChar
  3022  0002E2                     i2l2221:
  3023                           
  3024                           ;solution02_lab03.c: 66:             if (blink_2sec == 396){
  3025  0002E2  0E8C               	movlw	140
  3026  0002E4  1805               	xorwf	_blink_2sec^0,w,c
  3027  0002E6  E106               	bnz	i2u112_41
  3028  0002E8  0406               	decf	(_blink_2sec+1)^0,w,c
  3029  0002EA  A4D8               	btfss	status,2,c
  3030  0002EC  EF7A  F001         	goto	i2u112_41
  3031  0002F0  EF7C  F001         	goto	i2u112_40
  3032  0002F4                     i2u112_41:
  3033  0002F4  EFC2  F003         	goto	i2l382
  3034  0002F8                     i2u112_40:
  3035  0002F8                     
  3036                           ;solution02_lab03.c: 67:                 blink_2sec = 0;
  3037  0002F8  0E00               	movlw	0
  3038  0002FA  6E06               	movwf	(_blink_2sec+1)^0,c
  3039  0002FC  0E00               	movlw	0
  3040  0002FE  6E05               	movwf	_blink_2sec^0,c
  3041  000300                     
  3042                           ;solution02_lab03.c: 68:                 LCDPutChar(hr/10+'0');
  3043  000300  C01E  F01F         	movff	_hr,___awdiv@dividend	;volatile
  3044  000304  6A20               	clrf	(___awdiv@dividend+1)^0,c
  3045  000306  0E00               	movlw	0
  3046  000308  6E22               	movwf	(___awdiv@divisor+1)^0,c
  3047  00030A  0E0A               	movlw	10
  3048  00030C  6E21               	movwf	___awdiv@divisor^0,c
  3049  00030E  ECDD  F005         	call	___awdiv	;wreg free
  3050  000312  501F               	movf	?___awdiv^0,w,c
  3051  000314  0F30               	addlw	48
  3052  000316  EC5F  F008         	call	_LCDPutChar
  3053  00031A                     
  3054                           ;solution02_lab03.c: 69:                 LCDPutChar(hr%10+'0');
  3055  00031A  C01E  F01F         	movff	_hr,___awmod@dividend	;volatile
  3056  00031E  6A20               	clrf	(___awmod@dividend+1)^0,c
  3057  000320  0E00               	movlw	0
  3058  000322  6E22               	movwf	(___awmod@divisor+1)^0,c
  3059  000324  0E0A               	movlw	10
  3060  000326  6E21               	movwf	___awmod@divisor^0,c
  3061  000328  ECF3  F006         	call	___awmod	;wreg free
  3062  00032C  501F               	movf	?___awmod^0,w,c
  3063  00032E  0F30               	addlw	48
  3064  000330  EC5F  F008         	call	_LCDPutChar
  3065  000334  EFC2  F003         	goto	i2l382
  3066  000338                     i2l2229:
  3067                           
  3068                           ;solution02_lab03.c: 75:             if (flag_change_normal_sec == 1){
  3069  000338  0418               	decf	_flag_change_normal_sec^0,w,c
  3070  00033A  A4D8               	btfss	status,2,c
  3071  00033C  EFA2  F001         	goto	i2u113_41
  3072  000340  EFA4  F001         	goto	i2u113_40
  3073  000344                     i2u113_41:
  3074  000344  EFC3  F001         	goto	i2l2239
  3075  000348                     i2u113_40:
  3076  000348                     
  3077                           ;solution02_lab03.c: 76:                 flag_change_normal_sec = 0;
  3078  000348  0E00               	movlw	0
  3079  00034A  6E18               	movwf	_flag_change_normal_sec^0,c
  3080  00034C                     
  3081                           ;solution02_lab03.c: 77:                 LCDPutInst(0x86);
  3082  00034C  0E86               	movlw	134
  3083  00034E  EC2C  F008         	call	i2_LCDPutInst
  3084  000352                     
  3085                           ;solution02_lab03.c: 78:                 LCDPutChar(sec/10+'0');
  3086  000352  C01C  F01F         	movff	_sec,___awdiv@dividend	;volatile
  3087  000356  6A20               	clrf	(___awdiv@dividend+1)^0,c
  3088  000358  0E00               	movlw	0
  3089  00035A  6E22               	movwf	(___awdiv@divisor+1)^0,c
  3090  00035C  0E0A               	movlw	10
  3091  00035E  6E21               	movwf	___awdiv@divisor^0,c
  3092  000360  ECDD  F005         	call	___awdiv	;wreg free
  3093  000364  501F               	movf	?___awdiv^0,w,c
  3094  000366  0F30               	addlw	48
  3095  000368  EC5F  F008         	call	_LCDPutChar
  3096  00036C                     
  3097                           ;solution02_lab03.c: 79:                 LCDPutChar(sec%10+'0');
  3098  00036C  C01C  F01F         	movff	_sec,___awmod@dividend	;volatile
  3099  000370  6A20               	clrf	(___awmod@dividend+1)^0,c
  3100  000372  0E00               	movlw	0
  3101  000374  6E22               	movwf	(___awmod@divisor+1)^0,c
  3102  000376  0E0A               	movlw	10
  3103  000378  6E21               	movwf	___awmod@divisor^0,c
  3104  00037A  ECF3  F006         	call	___awmod	;wreg free
  3105  00037E  501F               	movf	?___awmod^0,w,c
  3106  000380  0F30               	addlw	48
  3107  000382  EC5F  F008         	call	_LCDPutChar
  3108  000386                     i2l2239:
  3109                           
  3110                           ;solution02_lab03.c: 81:             if (flag_change_normal_min == 1){
  3111  000386  0419               	decf	_flag_change_normal_min^0,w,c
  3112  000388  A4D8               	btfss	status,2,c
  3113  00038A  EFC9  F001         	goto	i2u114_41
  3114  00038E  EFCB  F001         	goto	i2u114_40
  3115  000392                     i2u114_41:
  3116  000392  EFEA  F001         	goto	i2l2249
  3117  000396                     i2u114_40:
  3118  000396                     
  3119                           ;solution02_lab03.c: 82:                 flag_change_normal_min = 0;
  3120  000396  0E00               	movlw	0
  3121  000398  6E19               	movwf	_flag_change_normal_min^0,c
  3122  00039A                     
  3123                           ;solution02_lab03.c: 83:                 LCDPutInst(0x83);
  3124  00039A  0E83               	movlw	131
  3125  00039C  EC2C  F008         	call	i2_LCDPutInst
  3126  0003A0                     
  3127                           ;solution02_lab03.c: 84:                 LCDPutChar(min/10+'0');
  3128  0003A0  C01D  F01F         	movff	_min,___awdiv@dividend	;volatile
  3129  0003A4  6A20               	clrf	(___awdiv@dividend+1)^0,c
  3130  0003A6  0E00               	movlw	0
  3131  0003A8  6E22               	movwf	(___awdiv@divisor+1)^0,c
  3132  0003AA  0E0A               	movlw	10
  3133  0003AC  6E21               	movwf	___awdiv@divisor^0,c
  3134  0003AE  ECDD  F005         	call	___awdiv	;wreg free
  3135  0003B2  501F               	movf	?___awdiv^0,w,c
  3136  0003B4  0F30               	addlw	48
  3137  0003B6  EC5F  F008         	call	_LCDPutChar
  3138  0003BA                     
  3139                           ;solution02_lab03.c: 85:                 LCDPutChar(min%10+'0');
  3140  0003BA  C01D  F01F         	movff	_min,___awmod@dividend	;volatile
  3141  0003BE  6A20               	clrf	(___awmod@dividend+1)^0,c
  3142  0003C0  0E00               	movlw	0
  3143  0003C2  6E22               	movwf	(___awmod@divisor+1)^0,c
  3144  0003C4  0E0A               	movlw	10
  3145  0003C6  6E21               	movwf	___awmod@divisor^0,c
  3146  0003C8  ECF3  F006         	call	___awmod	;wreg free
  3147  0003CC  501F               	movf	?___awmod^0,w,c
  3148  0003CE  0F30               	addlw	48
  3149  0003D0  EC5F  F008         	call	_LCDPutChar
  3150  0003D4                     i2l2249:
  3151                           
  3152                           ;solution02_lab03.c: 87:             if (flag_change_normal_hour == 1){
  3153  0003D4  041A               	decf	_flag_change_normal_hour^0,w,c
  3154  0003D6  A4D8               	btfss	status,2,c
  3155  0003D8  EFF0  F001         	goto	i2u115_41
  3156  0003DC  EFF2  F001         	goto	i2u115_40
  3157  0003E0                     i2u115_41:
  3158  0003E0  EF11  F002         	goto	i2l2259
  3159  0003E4                     i2u115_40:
  3160  0003E4                     
  3161                           ;solution02_lab03.c: 88:                 flag_change_normal_hour = 0;
  3162  0003E4  0E00               	movlw	0
  3163  0003E6  6E1A               	movwf	_flag_change_normal_hour^0,c
  3164  0003E8                     
  3165                           ;solution02_lab03.c: 89:                 LCDPutInst(0x80);
  3166  0003E8  0E80               	movlw	128
  3167  0003EA  EC2C  F008         	call	i2_LCDPutInst
  3168  0003EE                     
  3169                           ;solution02_lab03.c: 90:                 LCDPutChar(hr/10+'0');
  3170  0003EE  C01E  F01F         	movff	_hr,___awdiv@dividend	;volatile
  3171  0003F2  6A20               	clrf	(___awdiv@dividend+1)^0,c
  3172  0003F4  0E00               	movlw	0
  3173  0003F6  6E22               	movwf	(___awdiv@divisor+1)^0,c
  3174  0003F8  0E0A               	movlw	10
  3175  0003FA  6E21               	movwf	___awdiv@divisor^0,c
  3176  0003FC  ECDD  F005         	call	___awdiv	;wreg free
  3177  000400  501F               	movf	?___awdiv^0,w,c
  3178  000402  0F30               	addlw	48
  3179  000404  EC5F  F008         	call	_LCDPutChar
  3180  000408                     
  3181                           ;solution02_lab03.c: 91:                 LCDPutChar(hr%10+'0');
  3182  000408  C01E  F01F         	movff	_hr,___awmod@dividend	;volatile
  3183  00040C  6A20               	clrf	(___awmod@dividend+1)^0,c
  3184  00040E  0E00               	movlw	0
  3185  000410  6E22               	movwf	(___awmod@divisor+1)^0,c
  3186  000412  0E0A               	movlw	10
  3187  000414  6E21               	movwf	___awmod@divisor^0,c
  3188  000416  ECF3  F006         	call	___awmod	;wreg free
  3189  00041A  501F               	movf	?___awmod^0,w,c
  3190  00041C  0F30               	addlw	48
  3191  00041E  EC5F  F008         	call	_LCDPutChar
  3192  000422                     i2l2259:
  3193                           
  3194                           ;solution02_lab03.c: 93:             blink_2sec = blink_2sec + 1;
  3195  000422  0E01               	movlw	1
  3196  000424  2405               	addwf	_blink_2sec^0,w,c
  3197  000426  6E05               	movwf	_blink_2sec^0,c
  3198  000428  0E00               	movlw	0
  3199  00042A  2006               	addwfc	(_blink_2sec+1)^0,w,c
  3200  00042C  6E06               	movwf	(_blink_2sec+1)^0,c
  3201  00042E                     
  3202                           ;solution02_lab03.c: 94:             LCDPutInst(0x83);
  3203  00042E  0E83               	movlw	131
  3204  000430  EC2C  F008         	call	i2_LCDPutInst
  3205  000434                     
  3206                           ;solution02_lab03.c: 95:             if (blink_2sec == 396/2){
  3207  000434  0EC6               	movlw	198
  3208  000436  1805               	xorwf	_blink_2sec^0,w,c
  3209  000438  1006               	iorwf	(_blink_2sec+1)^0,w,c
  3210  00043A  A4D8               	btfss	status,2,c
  3211  00043C  EF22  F002         	goto	i2u116_41
  3212  000440  EF24  F002         	goto	i2u116_40
  3213  000444                     i2u116_41:
  3214  000444  EF2A  F002         	goto	i2l2267
  3215  000448                     i2u116_40:
  3216  000448                     
  3217                           ;solution02_lab03.c: 96:                 LCDPutChar('_');
  3218  000448  0E5F               	movlw	95
  3219  00044A  EC5F  F008         	call	_LCDPutChar
  3220                           
  3221                           ;solution02_lab03.c: 97:                 LCDPutChar('_');
  3222  00044E  0E5F               	movlw	95
  3223  000450  EC5F  F008         	call	_LCDPutChar
  3224  000454                     i2l2267:
  3225                           
  3226                           ;solution02_lab03.c: 99:             if (blink_2sec == 396){
  3227  000454  0E8C               	movlw	140
  3228  000456  1805               	xorwf	_blink_2sec^0,w,c
  3229  000458  E106               	bnz	i2u117_41
  3230  00045A  0406               	decf	(_blink_2sec+1)^0,w,c
  3231  00045C  A4D8               	btfss	status,2,c
  3232  00045E  EF33  F002         	goto	i2u117_41
  3233  000462  EF35  F002         	goto	i2u117_40
  3234  000466                     i2u117_41:
  3235  000466  EFC2  F003         	goto	i2l382
  3236  00046A                     i2u117_40:
  3237  00046A                     
  3238                           ;solution02_lab03.c: 100:                 blink_2sec = 0;
  3239  00046A  0E00               	movlw	0
  3240  00046C  6E06               	movwf	(_blink_2sec+1)^0,c
  3241  00046E  0E00               	movlw	0
  3242  000470  6E05               	movwf	_blink_2sec^0,c
  3243  000472                     
  3244                           ;solution02_lab03.c: 101:                 LCDPutChar(min/10+'0');
  3245  000472  C01D  F01F         	movff	_min,___awdiv@dividend	;volatile
  3246  000476  6A20               	clrf	(___awdiv@dividend+1)^0,c
  3247  000478  0E00               	movlw	0
  3248  00047A  6E22               	movwf	(___awdiv@divisor+1)^0,c
  3249  00047C  0E0A               	movlw	10
  3250  00047E  6E21               	movwf	___awdiv@divisor^0,c
  3251  000480  ECDD  F005         	call	___awdiv	;wreg free
  3252  000484  501F               	movf	?___awdiv^0,w,c
  3253  000486  0F30               	addlw	48
  3254  000488  EC5F  F008         	call	_LCDPutChar
  3255  00048C                     
  3256                           ;solution02_lab03.c: 102:                 LCDPutChar(min%10+'0');
  3257  00048C  C01D  F01F         	movff	_min,___awmod@dividend	;volatile
  3258  000490  6A20               	clrf	(___awmod@dividend+1)^0,c
  3259  000492  0E00               	movlw	0
  3260  000494  6E22               	movwf	(___awmod@divisor+1)^0,c
  3261  000496  0E0A               	movlw	10
  3262  000498  6E21               	movwf	___awmod@divisor^0,c
  3263  00049A  ECF3  F006         	call	___awmod	;wreg free
  3264  00049E  501F               	movf	?___awmod^0,w,c
  3265  0004A0  0F30               	addlw	48
  3266  0004A2  EC5F  F008         	call	_LCDPutChar
  3267  0004A6  EFC2  F003         	goto	i2l382
  3268  0004AA                     i2l2275:
  3269                           
  3270                           ;solution02_lab03.c: 108:             if (flag_change_normal_sec == 1){
  3271  0004AA  0418               	decf	_flag_change_normal_sec^0,w,c
  3272  0004AC  A4D8               	btfss	status,2,c
  3273  0004AE  EF5B  F002         	goto	i2u118_41
  3274  0004B2  EF5D  F002         	goto	i2u118_40
  3275  0004B6                     i2u118_41:
  3276  0004B6  EF7C  F002         	goto	i2l2285
  3277  0004BA                     i2u118_40:
  3278  0004BA                     
  3279                           ;solution02_lab03.c: 109:                 flag_change_normal_sec = 0;
  3280  0004BA  0E00               	movlw	0
  3281  0004BC  6E18               	movwf	_flag_change_normal_sec^0,c
  3282  0004BE                     
  3283                           ;solution02_lab03.c: 110:                 LCDPutInst(0x86);
  3284  0004BE  0E86               	movlw	134
  3285  0004C0  EC2C  F008         	call	i2_LCDPutInst
  3286  0004C4                     
  3287                           ;solution02_lab03.c: 111:                 LCDPutChar(sec/10+'0');
  3288  0004C4  C01C  F01F         	movff	_sec,___awdiv@dividend	;volatile
  3289  0004C8  6A20               	clrf	(___awdiv@dividend+1)^0,c
  3290  0004CA  0E00               	movlw	0
  3291  0004CC  6E22               	movwf	(___awdiv@divisor+1)^0,c
  3292  0004CE  0E0A               	movlw	10
  3293  0004D0  6E21               	movwf	___awdiv@divisor^0,c
  3294  0004D2  ECDD  F005         	call	___awdiv	;wreg free
  3295  0004D6  501F               	movf	?___awdiv^0,w,c
  3296  0004D8  0F30               	addlw	48
  3297  0004DA  EC5F  F008         	call	_LCDPutChar
  3298  0004DE                     
  3299                           ;solution02_lab03.c: 112:                 LCDPutChar(sec%10+'0');
  3300  0004DE  C01C  F01F         	movff	_sec,___awmod@dividend	;volatile
  3301  0004E2  6A20               	clrf	(___awmod@dividend+1)^0,c
  3302  0004E4  0E00               	movlw	0
  3303  0004E6  6E22               	movwf	(___awmod@divisor+1)^0,c
  3304  0004E8  0E0A               	movlw	10
  3305  0004EA  6E21               	movwf	___awmod@divisor^0,c
  3306  0004EC  ECF3  F006         	call	___awmod	;wreg free
  3307  0004F0  501F               	movf	?___awmod^0,w,c
  3308  0004F2  0F30               	addlw	48
  3309  0004F4  EC5F  F008         	call	_LCDPutChar
  3310  0004F8                     i2l2285:
  3311                           
  3312                           ;solution02_lab03.c: 114:             if (flag_change_normal_min == 1){
  3313  0004F8  0419               	decf	_flag_change_normal_min^0,w,c
  3314  0004FA  A4D8               	btfss	status,2,c
  3315  0004FC  EF82  F002         	goto	i2u119_41
  3316  000500  EF84  F002         	goto	i2u119_40
  3317  000504                     i2u119_41:
  3318  000504  EFA3  F002         	goto	i2l2295
  3319  000508                     i2u119_40:
  3320  000508                     
  3321                           ;solution02_lab03.c: 115:                 flag_change_normal_min = 0;
  3322  000508  0E00               	movlw	0
  3323  00050A  6E19               	movwf	_flag_change_normal_min^0,c
  3324  00050C                     
  3325                           ;solution02_lab03.c: 116:                 LCDPutInst(0x83);
  3326  00050C  0E83               	movlw	131
  3327  00050E  EC2C  F008         	call	i2_LCDPutInst
  3328  000512                     
  3329                           ;solution02_lab03.c: 117:                 LCDPutChar(min/10+'0');
  3330  000512  C01D  F01F         	movff	_min,___awdiv@dividend	;volatile
  3331  000516  6A20               	clrf	(___awdiv@dividend+1)^0,c
  3332  000518  0E00               	movlw	0
  3333  00051A  6E22               	movwf	(___awdiv@divisor+1)^0,c
  3334  00051C  0E0A               	movlw	10
  3335  00051E  6E21               	movwf	___awdiv@divisor^0,c
  3336  000520  ECDD  F005         	call	___awdiv	;wreg free
  3337  000524  501F               	movf	?___awdiv^0,w,c
  3338  000526  0F30               	addlw	48
  3339  000528  EC5F  F008         	call	_LCDPutChar
  3340  00052C                     
  3341                           ;solution02_lab03.c: 118:                 LCDPutChar(min%10+'0');
  3342  00052C  C01D  F01F         	movff	_min,___awmod@dividend	;volatile
  3343  000530  6A20               	clrf	(___awmod@dividend+1)^0,c
  3344  000532  0E00               	movlw	0
  3345  000534  6E22               	movwf	(___awmod@divisor+1)^0,c
  3346  000536  0E0A               	movlw	10
  3347  000538  6E21               	movwf	___awmod@divisor^0,c
  3348  00053A  ECF3  F006         	call	___awmod	;wreg free
  3349  00053E  501F               	movf	?___awmod^0,w,c
  3350  000540  0F30               	addlw	48
  3351  000542  EC5F  F008         	call	_LCDPutChar
  3352  000546                     i2l2295:
  3353                           
  3354                           ;solution02_lab03.c: 120:             if (flag_change_normal_hour == 1){
  3355  000546  041A               	decf	_flag_change_normal_hour^0,w,c
  3356  000548  A4D8               	btfss	status,2,c
  3357  00054A  EFA9  F002         	goto	i2u120_41
  3358  00054E  EFAB  F002         	goto	i2u120_40
  3359  000552                     i2u120_41:
  3360  000552  EFCA  F002         	goto	i2l2305
  3361  000556                     i2u120_40:
  3362  000556                     
  3363                           ;solution02_lab03.c: 121:                 flag_change_normal_hour = 0;
  3364  000556  0E00               	movlw	0
  3365  000558  6E1A               	movwf	_flag_change_normal_hour^0,c
  3366  00055A                     
  3367                           ;solution02_lab03.c: 122:                 LCDPutInst(0x80);
  3368  00055A  0E80               	movlw	128
  3369  00055C  EC2C  F008         	call	i2_LCDPutInst
  3370  000560                     
  3371                           ;solution02_lab03.c: 123:                 LCDPutChar(hr/10+'0');
  3372  000560  C01E  F01F         	movff	_hr,___awdiv@dividend	;volatile
  3373  000564  6A20               	clrf	(___awdiv@dividend+1)^0,c
  3374  000566  0E00               	movlw	0
  3375  000568  6E22               	movwf	(___awdiv@divisor+1)^0,c
  3376  00056A  0E0A               	movlw	10
  3377  00056C  6E21               	movwf	___awdiv@divisor^0,c
  3378  00056E  ECDD  F005         	call	___awdiv	;wreg free
  3379  000572  501F               	movf	?___awdiv^0,w,c
  3380  000574  0F30               	addlw	48
  3381  000576  EC5F  F008         	call	_LCDPutChar
  3382  00057A                     
  3383                           ;solution02_lab03.c: 124:                 LCDPutChar(hr%10+'0');
  3384  00057A  C01E  F01F         	movff	_hr,___awmod@dividend	;volatile
  3385  00057E  6A20               	clrf	(___awmod@dividend+1)^0,c
  3386  000580  0E00               	movlw	0
  3387  000582  6E22               	movwf	(___awmod@divisor+1)^0,c
  3388  000584  0E0A               	movlw	10
  3389  000586  6E21               	movwf	___awmod@divisor^0,c
  3390  000588  ECF3  F006         	call	___awmod	;wreg free
  3391  00058C  501F               	movf	?___awmod^0,w,c
  3392  00058E  0F30               	addlw	48
  3393  000590  EC5F  F008         	call	_LCDPutChar
  3394  000594                     i2l2305:
  3395                           
  3396                           ;solution02_lab03.c: 126:             blink_2sec = blink_2sec + 1;
  3397  000594  0E01               	movlw	1
  3398  000596  2405               	addwf	_blink_2sec^0,w,c
  3399  000598  6E05               	movwf	_blink_2sec^0,c
  3400  00059A  0E00               	movlw	0
  3401  00059C  2006               	addwfc	(_blink_2sec+1)^0,w,c
  3402  00059E  6E06               	movwf	(_blink_2sec+1)^0,c
  3403  0005A0                     
  3404                           ;solution02_lab03.c: 127:             LCDPutInst(0x86);
  3405  0005A0  0E86               	movlw	134
  3406  0005A2  EC2C  F008         	call	i2_LCDPutInst
  3407  0005A6                     
  3408                           ;solution02_lab03.c: 128:             if (blink_2sec == 396/2){
  3409  0005A6  0EC6               	movlw	198
  3410  0005A8  1805               	xorwf	_blink_2sec^0,w,c
  3411  0005AA  1006               	iorwf	(_blink_2sec+1)^0,w,c
  3412  0005AC  A4D8               	btfss	status,2,c
  3413  0005AE  EFDB  F002         	goto	i2u121_41
  3414  0005B2  EFDD  F002         	goto	i2u121_40
  3415  0005B6                     i2u121_41:
  3416  0005B6  EFE3  F002         	goto	i2l2313
  3417  0005BA                     i2u121_40:
  3418  0005BA                     
  3419                           ;solution02_lab03.c: 129:                 LCDPutChar('_');
  3420  0005BA  0E5F               	movlw	95
  3421  0005BC  EC5F  F008         	call	_LCDPutChar
  3422                           
  3423                           ;solution02_lab03.c: 130:                 LCDPutChar('_');
  3424  0005C0  0E5F               	movlw	95
  3425  0005C2  EC5F  F008         	call	_LCDPutChar
  3426  0005C6                     i2l2313:
  3427                           
  3428                           ;solution02_lab03.c: 132:             if (blink_2sec == 396){
  3429  0005C6  0E8C               	movlw	140
  3430  0005C8  1805               	xorwf	_blink_2sec^0,w,c
  3431  0005CA  E106               	bnz	i2u122_41
  3432  0005CC  0406               	decf	(_blink_2sec+1)^0,w,c
  3433  0005CE  A4D8               	btfss	status,2,c
  3434  0005D0  EFEC  F002         	goto	i2u122_41
  3435  0005D4  EFEE  F002         	goto	i2u122_40
  3436  0005D8                     i2u122_41:
  3437  0005D8  EFC2  F003         	goto	i2l382
  3438  0005DC                     i2u122_40:
  3439  0005DC                     
  3440                           ;solution02_lab03.c: 133:                 blink_2sec = 0;
  3441  0005DC  0E00               	movlw	0
  3442  0005DE  6E06               	movwf	(_blink_2sec+1)^0,c
  3443  0005E0  0E00               	movlw	0
  3444  0005E2  6E05               	movwf	_blink_2sec^0,c
  3445  0005E4                     
  3446                           ;solution02_lab03.c: 134:                 LCDPutChar(sec/10+'0');
  3447  0005E4  C01C  F01F         	movff	_sec,___awdiv@dividend	;volatile
  3448  0005E8  6A20               	clrf	(___awdiv@dividend+1)^0,c
  3449  0005EA  0E00               	movlw	0
  3450  0005EC  6E22               	movwf	(___awdiv@divisor+1)^0,c
  3451  0005EE  0E0A               	movlw	10
  3452  0005F0  6E21               	movwf	___awdiv@divisor^0,c
  3453  0005F2  ECDD  F005         	call	___awdiv	;wreg free
  3454  0005F6  501F               	movf	?___awdiv^0,w,c
  3455  0005F8  0F30               	addlw	48
  3456  0005FA  EC5F  F008         	call	_LCDPutChar
  3457  0005FE                     
  3458                           ;solution02_lab03.c: 135:                 LCDPutChar(sec%10+'0');
  3459  0005FE  C01C  F01F         	movff	_sec,___awmod@dividend	;volatile
  3460  000602  6A20               	clrf	(___awmod@dividend+1)^0,c
  3461  000604  0E00               	movlw	0
  3462  000606  6E22               	movwf	(___awmod@divisor+1)^0,c
  3463  000608  0E0A               	movlw	10
  3464  00060A  6E21               	movwf	___awmod@divisor^0,c
  3465  00060C  ECF3  F006         	call	___awmod	;wreg free
  3466  000610  501F               	movf	?___awmod^0,w,c
  3467  000612  0F30               	addlw	48
  3468  000614  EC5F  F008         	call	_LCDPutChar
  3469  000618  EFC2  F003         	goto	i2l382
  3470  00061C                     i2l2321:
  3471                           
  3472                           ;solution02_lab03.c: 141:             if ((flag_change_normal_sec00_2 == 1) || (stopwatc
      +                          h_firsttime == 0)){
  3473  00061C  0410               	decf	_flag_change_normal_sec00_2^0,w,c
  3474  00061E  B4D8               	btfsc	status,2,c
  3475  000620  EF14  F003         	goto	i2u123_41
  3476  000624  EF16  F003         	goto	i2u123_40
  3477  000628                     i2u123_41:
  3478  000628  EF1E  F003         	goto	i2l2325
  3479  00062C                     i2u123_40:
  3480  00062C  500F               	movf	_stopwatch_firsttime^0,w,c
  3481  00062E  A4D8               	btfss	status,2,c
  3482  000630  EF1C  F003         	goto	i2u124_41
  3483  000634  EF1E  F003         	goto	i2u124_40
  3484  000638                     i2u124_41:
  3485  000638  EF3D  F003         	goto	i2l2333
  3486  00063C                     i2u124_40:
  3487  00063C                     i2l2325:
  3488                           
  3489                           ;solution02_lab03.c: 142:                 flag_change_normal_sec00_2 = 0;
  3490  00063C  0E00               	movlw	0
  3491  00063E  6E10               	movwf	_flag_change_normal_sec00_2^0,c
  3492  000640                     
  3493                           ;solution02_lab03.c: 143:                 LCDPutInst(0x86);
  3494  000640  0E86               	movlw	134
  3495  000642  EC2C  F008         	call	i2_LCDPutInst
  3496  000646                     
  3497                           ;solution02_lab03.c: 144:                 LCDPutChar(sec0_01/10+'0');
  3498  000646  C013  F01F         	movff	_sec0_01,___awdiv@dividend	;volatile
  3499  00064A  6A20               	clrf	(___awdiv@dividend+1)^0,c
  3500  00064C  0E00               	movlw	0
  3501  00064E  6E22               	movwf	(___awdiv@divisor+1)^0,c
  3502  000650  0E0A               	movlw	10
  3503  000652  6E21               	movwf	___awdiv@divisor^0,c
  3504  000654  ECDD  F005         	call	___awdiv	;wreg free
  3505  000658  501F               	movf	?___awdiv^0,w,c
  3506  00065A  0F30               	addlw	48
  3507  00065C  EC5F  F008         	call	_LCDPutChar
  3508  000660                     
  3509                           ;solution02_lab03.c: 145:                 LCDPutChar(sec0_01%10+'0');
  3510  000660  C013  F01F         	movff	_sec0_01,___awmod@dividend	;volatile
  3511  000664  6A20               	clrf	(___awmod@dividend+1)^0,c
  3512  000666  0E00               	movlw	0
  3513  000668  6E22               	movwf	(___awmod@divisor+1)^0,c
  3514  00066A  0E0A               	movlw	10
  3515  00066C  6E21               	movwf	___awmod@divisor^0,c
  3516  00066E  ECF3  F006         	call	___awmod	;wreg free
  3517  000672  501F               	movf	?___awmod^0,w,c
  3518  000674  0F30               	addlw	48
  3519  000676  EC5F  F008         	call	_LCDPutChar
  3520  00067A                     i2l2333:
  3521                           
  3522                           ;solution02_lab03.c: 147:             if ((flag_change_normal_sec2 == 1) || (stopwatch_f
      +                          irsttime == 0)) {
  3523  00067A  0411               	decf	_flag_change_normal_sec2^0,w,c
  3524  00067C  B4D8               	btfsc	status,2,c
  3525  00067E  EF43  F003         	goto	i2u125_41
  3526  000682  EF45  F003         	goto	i2u125_40
  3527  000686                     i2u125_41:
  3528  000686  EF4D  F003         	goto	i2l2337
  3529  00068A                     i2u125_40:
  3530  00068A  500F               	movf	_stopwatch_firsttime^0,w,c
  3531  00068C  A4D8               	btfss	status,2,c
  3532  00068E  EF4B  F003         	goto	i2u126_41
  3533  000692  EF4D  F003         	goto	i2u126_40
  3534  000696                     i2u126_41:
  3535  000696  EF6C  F003         	goto	i2l2345
  3536  00069A                     i2u126_40:
  3537  00069A                     i2l2337:
  3538                           
  3539                           ;solution02_lab03.c: 148:                 flag_change_normal_sec2 = 0;
  3540  00069A  0E00               	movlw	0
  3541  00069C  6E11               	movwf	_flag_change_normal_sec2^0,c
  3542  00069E                     
  3543                           ;solution02_lab03.c: 149:                 LCDPutInst(0x83);
  3544  00069E  0E83               	movlw	131
  3545  0006A0  EC2C  F008         	call	i2_LCDPutInst
  3546  0006A4                     
  3547                           ;solution02_lab03.c: 150:                 LCDPutChar(sec2/10+'0');
  3548  0006A4  C014  F01F         	movff	_sec2,___awdiv@dividend	;volatile
  3549  0006A8  6A20               	clrf	(___awdiv@dividend+1)^0,c
  3550  0006AA  0E00               	movlw	0
  3551  0006AC  6E22               	movwf	(___awdiv@divisor+1)^0,c
  3552  0006AE  0E0A               	movlw	10
  3553  0006B0  6E21               	movwf	___awdiv@divisor^0,c
  3554  0006B2  ECDD  F005         	call	___awdiv	;wreg free
  3555  0006B6  501F               	movf	?___awdiv^0,w,c
  3556  0006B8  0F30               	addlw	48
  3557  0006BA  EC5F  F008         	call	_LCDPutChar
  3558  0006BE                     
  3559                           ;solution02_lab03.c: 151:                 LCDPutChar(sec2%10+'0');
  3560  0006BE  C014  F01F         	movff	_sec2,___awmod@dividend	;volatile
  3561  0006C2  6A20               	clrf	(___awmod@dividend+1)^0,c
  3562  0006C4  0E00               	movlw	0
  3563  0006C6  6E22               	movwf	(___awmod@divisor+1)^0,c
  3564  0006C8  0E0A               	movlw	10
  3565  0006CA  6E21               	movwf	___awmod@divisor^0,c
  3566  0006CC  ECF3  F006         	call	___awmod	;wreg free
  3567  0006D0  501F               	movf	?___awmod^0,w,c
  3568  0006D2  0F30               	addlw	48
  3569  0006D4  EC5F  F008         	call	_LCDPutChar
  3570  0006D8                     i2l2345:
  3571                           
  3572                           ;solution02_lab03.c: 153:             if ((flag_change_normal_min2 == 1) || (stopwatch_f
      +                          irsttime == 0)){
  3573  0006D8  0412               	decf	_flag_change_normal_min2^0,w,c
  3574  0006DA  B4D8               	btfsc	status,2,c
  3575  0006DC  EF72  F003         	goto	i2u127_41
  3576  0006E0  EF74  F003         	goto	i2u127_40
  3577  0006E4                     i2u127_41:
  3578  0006E4  EF7C  F003         	goto	i2l2349
  3579  0006E8                     i2u127_40:
  3580  0006E8  500F               	movf	_stopwatch_firsttime^0,w,c
  3581  0006EA  A4D8               	btfss	status,2,c
  3582  0006EC  EF7A  F003         	goto	i2u128_41
  3583  0006F0  EF7C  F003         	goto	i2u128_40
  3584  0006F4                     i2u128_41:
  3585  0006F4  EF9D  F003         	goto	i2l2357
  3586  0006F8                     i2u128_40:
  3587  0006F8                     i2l2349:
  3588                           
  3589                           ;solution02_lab03.c: 154:                 stopwatch_firsttime = 1;
  3590  0006F8  0E01               	movlw	1
  3591  0006FA  6E0F               	movwf	_stopwatch_firsttime^0,c
  3592                           
  3593                           ;solution02_lab03.c: 155:                 flag_change_normal_min2 = 0;
  3594  0006FC  0E00               	movlw	0
  3595  0006FE  6E12               	movwf	_flag_change_normal_min2^0,c
  3596  000700                     
  3597                           ;solution02_lab03.c: 156:                 LCDPutInst(0x80);
  3598  000700  0E80               	movlw	128
  3599  000702  EC2C  F008         	call	i2_LCDPutInst
  3600  000706                     
  3601                           ;solution02_lab03.c: 157:                 LCDPutChar(min2/10+'0');
  3602  000706  C015  F01F         	movff	_min2,___awdiv@dividend	;volatile
  3603  00070A  6A20               	clrf	(___awdiv@dividend+1)^0,c
  3604  00070C  0E00               	movlw	0
  3605  00070E  6E22               	movwf	(___awdiv@divisor+1)^0,c
  3606  000710  0E0A               	movlw	10
  3607  000712  6E21               	movwf	___awdiv@divisor^0,c
  3608  000714  ECDD  F005         	call	___awdiv	;wreg free
  3609  000718  501F               	movf	?___awdiv^0,w,c
  3610  00071A  0F30               	addlw	48
  3611  00071C  EC5F  F008         	call	_LCDPutChar
  3612  000720                     
  3613                           ;solution02_lab03.c: 158:                 LCDPutChar(min2%10+'0');
  3614  000720  C015  F01F         	movff	_min2,___awmod@dividend	;volatile
  3615  000724  6A20               	clrf	(___awmod@dividend+1)^0,c
  3616  000726  0E00               	movlw	0
  3617  000728  6E22               	movwf	(___awmod@divisor+1)^0,c
  3618  00072A  0E0A               	movlw	10
  3619  00072C  6E21               	movwf	___awmod@divisor^0,c
  3620  00072E  ECF3  F006         	call	___awmod	;wreg free
  3621  000732  501F               	movf	?___awmod^0,w,c
  3622  000734  0F30               	addlw	48
  3623  000736  EC5F  F008         	call	_LCDPutChar
  3624  00073A                     i2l2357:
  3625                           
  3626                           ;solution02_lab03.c: 160:             flag_for_dot_dot = 0;
  3627  00073A  0E00               	movlw	0
  3628  00073C  6E1B               	movwf	_flag_for_dot_dot^0,c
  3629                           
  3630                           ;solution02_lab03.c: 161:             break;
  3631  00073E  EFC2  F003         	goto	i2l382
  3632  000742                     i2l2361:
  3633  000742  500D               	movf	_current_state^0,w,c
  3634  000744  6E27               	movwf	??_display_normal_clock^0,c
  3635  000746  6A28               	clrf	(??_display_normal_clock+1)^0,c
  3636                           
  3637                           ; Switch on 2 bytes has been partitioned into a top level switch of size 1, and 1 sub-sw
      +                          itches
  3638                           ; Switch size 1, requested type "simple"
  3639                           ; Number of cases is 1, Range of values is 0 to 0
  3640                           ; switch strategies available:
  3641                           ; Name         Instructions Cycles
  3642                           ; simple_byte            4     3 (average)
  3643                           ;	Chosen strategy is simple_byte
  3644  000748  5028               	movf	(??_display_normal_clock+1)^0,w,c
  3645  00074A  0A00               	xorlw	0	; case 0
  3646  00074C  B4D8               	btfsc	status,2,c
  3647  00074E  EFAB  F003         	goto	i2l2627
  3648  000752  EFC2  F003         	goto	i2l382
  3649  000756                     i2l2627:
  3650                           
  3651                           ; Switch size 1, requested type "simple"
  3652                           ; Number of cases is 5, Range of values is 0 to 4
  3653                           ; switch strategies available:
  3654                           ; Name         Instructions Cycles
  3655                           ; simple_byte           16     9 (average)
  3656                           ;	Chosen strategy is simple_byte
  3657  000756  5027               	movf	??_display_normal_clock^0,w,c
  3658  000758  0A00               	xorlw	0	; case 0
  3659  00075A  B4D8               	btfsc	status,2,c
  3660  00075C  EF0B  F000         	goto	i2l2131
  3661  000760  0A01               	xorlw	1	; case 1
  3662  000762  B4D8               	btfsc	status,2,c
  3663  000764  EFE3  F000         	goto	i2l2183
  3664  000768  0A03               	xorlw	3	; case 2
  3665  00076A  B4D8               	btfsc	status,2,c
  3666  00076C  EF9C  F001         	goto	i2l2229
  3667  000770  0A01               	xorlw	1	; case 3
  3668  000772  B4D8               	btfsc	status,2,c
  3669  000774  EF55  F002         	goto	i2l2275
  3670  000778  0A07               	xorlw	7	; case 4
  3671  00077A  B4D8               	btfsc	status,2,c
  3672  00077C  EF0E  F003         	goto	i2l2321
  3673  000780  EFC2  F003         	goto	i2l382
  3674  000784                     i2l382:
  3675  000784  0012               	return		;funcret
  3676  000786                     __end_of_display_normal_clock:
  3677                           	opt callstack 0
  3678                           
  3679 ;; *************** function i2_LCDPutInst *****************
  3680 ;; Defined at:
  3681 ;;		line 74 in file "solution_lab03.c"
  3682 ;; Parameters:    Size  Location     Type
  3683 ;;  ch              1    wreg     unsigned char 
  3684 ;; Auto vars:     Size  Location     Type
  3685 ;;  ch              1    6[COMRAM] unsigned char 
  3686 ;; Return value:  Size  Location     Type
  3687 ;;                  1    wreg      void 
  3688 ;; Registers used:
  3689 ;;		wreg, status,2, status,0, cstack
  3690 ;; Tracked objects:
  3691 ;;		On entry : 0/0
  3692 ;;		On exit  : 0/0
  3693 ;;		Unchanged: 0/0
  3694 ;; Data sizes:     COMRAM   BANK0   BANK1   BANK2   BANK3   BANK4   BANK5   BANK6   BANK7   BANK8   BANK9  BANK10  BANK1
      +1  BANK12  BANK13  BANK14  BANK15
  3695 ;;      Params:         0       0       0       0       0       0       0       0       0       0       0       0       
      +0       0       0       0       0
  3696 ;;      Locals:         1       0       0       0       0       0       0       0       0       0       0       0       
      +0       0       0       0       0
  3697 ;;      Temps:          1       0       0       0       0       0       0       0       0       0       0       0       
      +0       0       0       0       0
  3698 ;;      Totals:         2       0       0       0       0       0       0       0       0       0       0       0       
      +0       0       0       0       0
  3699 ;;Total ram usage:        2 bytes
  3700 ;; Hardware stack levels used:    1
  3701 ;; Hardware stack levels required when called:    2
  3702 ;; This function calls:
  3703 ;;		i2_WritePort_BBSPI
  3704 ;; This function is called by:
  3705 ;;		_display_normal_clock
  3706 ;;		_return_basic_display
  3707 ;; This function uses a non-reentrant model
  3708 ;;
  3709                           
  3710                           	psect	text22
  3711  001058                     __ptext22:
  3712                           	opt callstack 0
  3713  001058                     i2_LCDPutInst:
  3714                           	opt callstack 20
  3715                           
  3716                           ;incstack = 0
  3717                           ;i2LCDPutInst@ch stored from wreg
  3718  001058  6E25               	movwf	i2LCDPutInst@ch^0,c
  3719  00105A                     
  3720                           ;solution_lab03.c: 75:     _delay((unsigned long)((2)*(10000000/4000.0)));
  3721  00105A  0E07               	movlw	7
  3722  00105C  6E24               	movwf	??i2_LCDPutInst^0,c
  3723  00105E  0E7D               	movlw	125
  3724  001060                     i2u165_47:
  3725  001060  2EE8               	decfsz	wreg,f,c
  3726  001062  D7FE               	bra	i2u165_47
  3727  001064  2E24               	decfsz	??i2_LCDPutInst^0,f,c
  3728  001066  D7FC               	bra	i2u165_47
  3729  001068  F000               	nop	
  3730  00106A                     
  3731                           ;solution_lab03.c: 76:     WritePort_BBSPI (0x12, 0x00);
  3732  00106A  0E00               	movlw	0
  3733  00106C  6E22               	movwf	i2WritePort_BBSPI@a^0,c
  3734  00106E  0E12               	movlw	18
  3735  001070  EC02  F009         	call	i2_WritePort_BBSPI
  3736  001074                     
  3737                           ;solution_lab03.c: 77:     _delay((unsigned long)((1)*(10000000/4000.0)));
  3738  001074  0E04               	movlw	4
  3739  001076  6E24               	movwf	??i2_LCDPutInst^0,c
  3740  001078  0E3E               	movlw	62
  3741  00107A                     i2u166_47:
  3742  00107A  2EE8               	decfsz	wreg,f,c
  3743  00107C  D7FE               	bra	i2u166_47
  3744  00107E  2E24               	decfsz	??i2_LCDPutInst^0,f,c
  3745  001080  D7FC               	bra	i2u166_47
  3746  001082                     
  3747                           ;solution_lab03.c: 78:     WritePort_BBSPI (0x13, ch);
  3748  001082  C025  F022         	movff	i2LCDPutInst@ch,i2WritePort_BBSPI@a
  3749  001086  0E13               	movlw	19
  3750  001088  EC02  F009         	call	i2_WritePort_BBSPI
  3751  00108C                     
  3752                           ;solution_lab03.c: 79:     _delay((unsigned long)((1)*(10000000/4000.0)));
  3753  00108C  0E04               	movlw	4
  3754  00108E  6E24               	movwf	??i2_LCDPutInst^0,c
  3755  001090  0E3E               	movlw	62
  3756  001092                     i2u167_47:
  3757  001092  2EE8               	decfsz	wreg,f,c
  3758  001094  D7FE               	bra	i2u167_47
  3759  001096  2E24               	decfsz	??i2_LCDPutInst^0,f,c
  3760  001098  D7FC               	bra	i2u167_47
  3761  00109A                     
  3762                           ;solution_lab03.c: 80:     WritePort_BBSPI (0x12,0x40);
  3763  00109A  0E40               	movlw	64
  3764  00109C  6E22               	movwf	i2WritePort_BBSPI@a^0,c
  3765  00109E  0E12               	movlw	18
  3766  0010A0  EC02  F009         	call	i2_WritePort_BBSPI
  3767  0010A4                     
  3768                           ;solution_lab03.c: 81:     _delay((unsigned long)((1)*(10000000/4000.0)));
  3769  0010A4  0E04               	movlw	4
  3770  0010A6  6E24               	movwf	??i2_LCDPutInst^0,c
  3771  0010A8  0E3E               	movlw	62
  3772  0010AA                     i2u168_47:
  3773  0010AA  2EE8               	decfsz	wreg,f,c
  3774  0010AC  D7FE               	bra	i2u168_47
  3775  0010AE  2E24               	decfsz	??i2_LCDPutInst^0,f,c
  3776  0010B0  D7FC               	bra	i2u168_47
  3777  0010B2                     
  3778                           ;solution_lab03.c: 82:     WritePort_BBSPI (0x12, 0x00);
  3779  0010B2  0E00               	movlw	0
  3780  0010B4  6E22               	movwf	i2WritePort_BBSPI@a^0,c
  3781  0010B6  0E12               	movlw	18
  3782  0010B8  EC02  F009         	call	i2_WritePort_BBSPI
  3783  0010BC  0012               	return		;funcret
  3784  0010BE                     __end_ofi2_LCDPutInst:
  3785                           	opt callstack 0
  3786                           
  3787 ;; *************** function ___awmod *****************
  3788 ;; Defined at:
  3789 ;;		line 7 in file "D:\hk191dhbknam3hk1\e_vi_xu_ly_vi_dieu_khien_\software_needed_for_lab\folder_caidat\Microchip\xc8\v2
      +.10\pic\sources\c99\common\awmod.c"
  3790 ;; Parameters:    Size  Location     Type
  3791 ;;  dividend        2    0[COMRAM] int 
  3792 ;;  divisor         2    2[COMRAM] int 
  3793 ;; Auto vars:     Size  Location     Type
  3794 ;;  sign            1    5[COMRAM] unsigned char 
  3795 ;;  counter         1    4[COMRAM] unsigned char 
  3796 ;; Return value:  Size  Location     Type
  3797 ;;                  2    0[COMRAM] int 
  3798 ;; Registers used:
  3799 ;;		wreg, status,2, status,0
  3800 ;; Tracked objects:
  3801 ;;		On entry : 0/0
  3802 ;;		On exit  : 0/0
  3803 ;;		Unchanged: 0/0
  3804 ;; Data sizes:     COMRAM   BANK0   BANK1   BANK2   BANK3   BANK4   BANK5   BANK6   BANK7   BANK8   BANK9  BANK10  BANK1
      +1  BANK12  BANK13  BANK14  BANK15
  3805 ;;      Params:         4       0       0       0       0       0       0       0       0       0       0       0       
      +0       0       0       0       0
  3806 ;;      Locals:         2       0       0       0       0       0       0       0       0       0       0       0       
      +0       0       0       0       0
  3807 ;;      Temps:          0       0       0       0       0       0       0       0       0       0       0       0       
      +0       0       0       0       0
  3808 ;;      Totals:         6       0       0       0       0       0       0       0       0       0       0       0       
      +0       0       0       0       0
  3809 ;;Total ram usage:        6 bytes
  3810 ;; Hardware stack levels used:    1
  3811 ;; This function calls:
  3812 ;;		Nothing
  3813 ;; This function is called by:
  3814 ;;		_display_normal_clock
  3815 ;;		_return_basic_display
  3816 ;; This function uses a non-reentrant model
  3817 ;;
  3818                           
  3819                           	psect	text23
  3820  000DE6                     __ptext23:
  3821                           	opt callstack 0
  3822  000DE6                     ___awmod:
  3823                           	opt callstack 22
  3824  000DE6  0E00               	movlw	0
  3825  000DE8  6E24               	movwf	___awmod@sign^0,c
  3826  000DEA  BE20               	btfsc	(___awmod@dividend+1)^0,7,c
  3827  000DEC  EFFC  F006         	goto	i2u98_40
  3828  000DF0  EFFA  F006         	goto	i2u98_41
  3829  000DF4                     i2u98_41:
  3830  000DF4  EF02  F007         	goto	i2l2079
  3831  000DF8                     i2u98_40:
  3832  000DF8  6C1F               	negf	___awmod@dividend^0,c
  3833  000DFA  1E20               	comf	(___awmod@dividend+1)^0,f,c
  3834  000DFC  B0D8               	btfsc	status,0,c
  3835  000DFE  2A20               	incf	(___awmod@dividend+1)^0,f,c
  3836  000E00  0E01               	movlw	1
  3837  000E02  6E24               	movwf	___awmod@sign^0,c
  3838  000E04                     i2l2079:
  3839  000E04  BE22               	btfsc	(___awmod@divisor+1)^0,7,c
  3840  000E06  EF09  F007         	goto	i2u99_40
  3841  000E0A  EF07  F007         	goto	i2u99_41
  3842  000E0E                     i2u99_41:
  3843  000E0E  EF0D  F007         	goto	i2l2083
  3844  000E12                     i2u99_40:
  3845  000E12  6C21               	negf	___awmod@divisor^0,c
  3846  000E14  1E22               	comf	(___awmod@divisor+1)^0,f,c
  3847  000E16  B0D8               	btfsc	status,0,c
  3848  000E18  2A22               	incf	(___awmod@divisor+1)^0,f,c
  3849  000E1A                     i2l2083:
  3850  000E1A  5021               	movf	___awmod@divisor^0,w,c
  3851  000E1C  1022               	iorwf	(___awmod@divisor+1)^0,w,c
  3852  000E1E  B4D8               	btfsc	status,2,c
  3853  000E20  EF14  F007         	goto	i2u100_41
  3854  000E24  EF16  F007         	goto	i2u100_40
  3855  000E28                     i2u100_41:
  3856  000E28  EF3A  F007         	goto	i2l2099
  3857  000E2C                     i2u100_40:
  3858  000E2C  0E01               	movlw	1
  3859  000E2E  6E23               	movwf	___awmod@counter^0,c
  3860  000E30  EF1E  F007         	goto	i2l2089
  3861  000E34                     i2l2087:
  3862  000E34  90D8               	bcf	status,0,c
  3863  000E36  3621               	rlcf	___awmod@divisor^0,f,c
  3864  000E38  3622               	rlcf	(___awmod@divisor+1)^0,f,c
  3865  000E3A  2A23               	incf	___awmod@counter^0,f,c
  3866  000E3C                     i2l2089:
  3867  000E3C  AE22               	btfss	(___awmod@divisor+1)^0,7,c
  3868  000E3E  EF23  F007         	goto	i2u101_41
  3869  000E42  EF25  F007         	goto	i2u101_40
  3870  000E46                     i2u101_41:
  3871  000E46  EF1A  F007         	goto	i2l2087
  3872  000E4A                     i2u101_40:
  3873  000E4A                     i2l2091:
  3874  000E4A  5021               	movf	___awmod@divisor^0,w,c
  3875  000E4C  5C1F               	subwf	___awmod@dividend^0,w,c
  3876  000E4E  5022               	movf	(___awmod@divisor+1)^0,w,c
  3877  000E50  5820               	subwfb	(___awmod@dividend+1)^0,w,c
  3878  000E52  A0D8               	btfss	status,0,c
  3879  000E54  EF2E  F007         	goto	i2u102_41
  3880  000E58  EF30  F007         	goto	i2u102_40
  3881  000E5C                     i2u102_41:
  3882  000E5C  EF34  F007         	goto	i2l2095
  3883  000E60                     i2u102_40:
  3884  000E60  5021               	movf	___awmod@divisor^0,w,c
  3885  000E62  5E1F               	subwf	___awmod@dividend^0,f,c
  3886  000E64  5022               	movf	(___awmod@divisor+1)^0,w,c
  3887  000E66  5A20               	subwfb	(___awmod@dividend+1)^0,f,c
  3888  000E68                     i2l2095:
  3889  000E68  90D8               	bcf	status,0,c
  3890  000E6A  3222               	rrcf	(___awmod@divisor+1)^0,f,c
  3891  000E6C  3221               	rrcf	___awmod@divisor^0,f,c
  3892  000E6E  2E23               	decfsz	___awmod@counter^0,f,c
  3893  000E70  EF25  F007         	goto	i2l2091
  3894  000E74                     i2l2099:
  3895  000E74  5024               	movf	___awmod@sign^0,w,c
  3896  000E76  B4D8               	btfsc	status,2,c
  3897  000E78  EF40  F007         	goto	i2u103_41
  3898  000E7C  EF42  F007         	goto	i2u103_40
  3899  000E80                     i2u103_41:
  3900  000E80  EF46  F007         	goto	i2l2103
  3901  000E84                     i2u103_40:
  3902  000E84  6C1F               	negf	___awmod@dividend^0,c
  3903  000E86  1E20               	comf	(___awmod@dividend+1)^0,f,c
  3904  000E88  B0D8               	btfsc	status,0,c
  3905  000E8A  2A20               	incf	(___awmod@dividend+1)^0,f,c
  3906  000E8C                     i2l2103:
  3907  000E8C  C01F  F01F         	movff	___awmod@dividend,?___awmod
  3908  000E90  C020  F020         	movff	___awmod@dividend+1,?___awmod+1
  3909  000E94  0012               	return		;funcret
  3910  000E96                     __end_of___awmod:
  3911                           	opt callstack 0
  3912                           
  3913 ;; *************** function ___awdiv *****************
  3914 ;; Defined at:
  3915 ;;		line 7 in file "D:\hk191dhbknam3hk1\e_vi_xu_ly_vi_dieu_khien_\software_needed_for_lab\folder_caidat\Microchip\xc8\v2
      +.10\pic\sources\c99\common\awdiv.c"
  3916 ;; Parameters:    Size  Location     Type
  3917 ;;  dividend        2    0[COMRAM] int 
  3918 ;;  divisor         2    2[COMRAM] int 
  3919 ;; Auto vars:     Size  Location     Type
  3920 ;;  quotient        2    6[COMRAM] int 
  3921 ;;  sign            1    5[COMRAM] unsigned char 
  3922 ;;  counter         1    4[COMRAM] unsigned char 
  3923 ;; Return value:  Size  Location     Type
  3924 ;;                  2    0[COMRAM] int 
  3925 ;; Registers used:
  3926 ;;		wreg, status,2, status,0
  3927 ;; Tracked objects:
  3928 ;;		On entry : 0/0
  3929 ;;		On exit  : 0/0
  3930 ;;		Unchanged: 0/0
  3931 ;; Data sizes:     COMRAM   BANK0   BANK1   BANK2   BANK3   BANK4   BANK5   BANK6   BANK7   BANK8   BANK9  BANK10  BANK1
      +1  BANK12  BANK13  BANK14  BANK15
  3932 ;;      Params:         4       0       0       0       0       0       0       0       0       0       0       0       
      +0       0       0       0       0
  3933 ;;      Locals:         4       0       0       0       0       0       0       0       0       0       0       0       
      +0       0       0       0       0
  3934 ;;      Temps:          0       0       0       0       0       0       0       0       0       0       0       0       
      +0       0       0       0       0
  3935 ;;      Totals:         8       0       0       0       0       0       0       0       0       0       0       0       
      +0       0       0       0       0
  3936 ;;Total ram usage:        8 bytes
  3937 ;; Hardware stack levels used:    1
  3938 ;; This function calls:
  3939 ;;		Nothing
  3940 ;; This function is called by:
  3941 ;;		_display_normal_clock
  3942 ;;		_return_basic_display
  3943 ;; This function uses a non-reentrant model
  3944 ;;
  3945                           
  3946                           	psect	text24
  3947  000BBA                     __ptext24:
  3948                           	opt callstack 0
  3949  000BBA                     ___awdiv:
  3950                           	opt callstack 22
  3951  000BBA  0E00               	movlw	0
  3952  000BBC  6E24               	movwf	___awdiv@sign^0,c
  3953  000BBE  BE22               	btfsc	(___awdiv@divisor+1)^0,7,c
  3954  000BC0  EFE6  F005         	goto	i2u92_40
  3955  000BC4  EFE4  F005         	goto	i2u92_41
  3956  000BC8                     i2u92_41:
  3957  000BC8  EFEC  F005         	goto	i2l2035
  3958  000BCC                     i2u92_40:
  3959  000BCC  6C21               	negf	___awdiv@divisor^0,c
  3960  000BCE  1E22               	comf	(___awdiv@divisor+1)^0,f,c
  3961  000BD0  B0D8               	btfsc	status,0,c
  3962  000BD2  2A22               	incf	(___awdiv@divisor+1)^0,f,c
  3963  000BD4  0E01               	movlw	1
  3964  000BD6  6E24               	movwf	___awdiv@sign^0,c
  3965  000BD8                     i2l2035:
  3966  000BD8  BE20               	btfsc	(___awdiv@dividend+1)^0,7,c
  3967  000BDA  EFF3  F005         	goto	i2u93_40
  3968  000BDE  EFF1  F005         	goto	i2u93_41
  3969  000BE2                     i2u93_41:
  3970  000BE2  EFF9  F005         	goto	i2l2041
  3971  000BE6                     i2u93_40:
  3972  000BE6  6C1F               	negf	___awdiv@dividend^0,c
  3973  000BE8  1E20               	comf	(___awdiv@dividend+1)^0,f,c
  3974  000BEA  B0D8               	btfsc	status,0,c
  3975  000BEC  2A20               	incf	(___awdiv@dividend+1)^0,f,c
  3976  000BEE  0E01               	movlw	1
  3977  000BF0  1A24               	xorwf	___awdiv@sign^0,f,c
  3978  000BF2                     i2l2041:
  3979  000BF2  0E00               	movlw	0
  3980  000BF4  6E26               	movwf	(___awdiv@quotient+1)^0,c
  3981  000BF6  0E00               	movlw	0
  3982  000BF8  6E25               	movwf	___awdiv@quotient^0,c
  3983  000BFA  5021               	movf	___awdiv@divisor^0,w,c
  3984  000BFC  1022               	iorwf	(___awdiv@divisor+1)^0,w,c
  3985  000BFE  B4D8               	btfsc	status,2,c
  3986  000C00  EF04  F006         	goto	i2u94_41
  3987  000C04  EF06  F006         	goto	i2u94_40
  3988  000C08                     i2u94_41:
  3989  000C08  EF2E  F006         	goto	i2l2063
  3990  000C0C                     i2u94_40:
  3991  000C0C  0E01               	movlw	1
  3992  000C0E  6E23               	movwf	___awdiv@counter^0,c
  3993  000C10  EF0E  F006         	goto	i2l2049
  3994  000C14                     i2l2047:
  3995  000C14  90D8               	bcf	status,0,c
  3996  000C16  3621               	rlcf	___awdiv@divisor^0,f,c
  3997  000C18  3622               	rlcf	(___awdiv@divisor+1)^0,f,c
  3998  000C1A  2A23               	incf	___awdiv@counter^0,f,c
  3999  000C1C                     i2l2049:
  4000  000C1C  AE22               	btfss	(___awdiv@divisor+1)^0,7,c
  4001  000C1E  EF13  F006         	goto	i2u95_41
  4002  000C22  EF15  F006         	goto	i2u95_40
  4003  000C26                     i2u95_41:
  4004  000C26  EF0A  F006         	goto	i2l2047
  4005  000C2A                     i2u95_40:
  4006  000C2A                     i2l2051:
  4007  000C2A  90D8               	bcf	status,0,c
  4008  000C2C  3625               	rlcf	___awdiv@quotient^0,f,c
  4009  000C2E  3626               	rlcf	(___awdiv@quotient+1)^0,f,c
  4010  000C30  5021               	movf	___awdiv@divisor^0,w,c
  4011  000C32  5C1F               	subwf	___awdiv@dividend^0,w,c
  4012  000C34  5022               	movf	(___awdiv@divisor+1)^0,w,c
  4013  000C36  5820               	subwfb	(___awdiv@dividend+1)^0,w,c
  4014  000C38  A0D8               	btfss	status,0,c
  4015  000C3A  EF21  F006         	goto	i2u96_41
  4016  000C3E  EF23  F006         	goto	i2u96_40
  4017  000C42                     i2u96_41:
  4018  000C42  EF28  F006         	goto	i2l2059
  4019  000C46                     i2u96_40:
  4020  000C46  5021               	movf	___awdiv@divisor^0,w,c
  4021  000C48  5E1F               	subwf	___awdiv@dividend^0,f,c
  4022  000C4A  5022               	movf	(___awdiv@divisor+1)^0,w,c
  4023  000C4C  5A20               	subwfb	(___awdiv@dividend+1)^0,f,c
  4024  000C4E  8025               	bsf	___awdiv@quotient^0,0,c
  4025  000C50                     i2l2059:
  4026  000C50  90D8               	bcf	status,0,c
  4027  000C52  3222               	rrcf	(___awdiv@divisor+1)^0,f,c
  4028  000C54  3221               	rrcf	___awdiv@divisor^0,f,c
  4029  000C56  2E23               	decfsz	___awdiv@counter^0,f,c
  4030  000C58  EF15  F006         	goto	i2l2051
  4031  000C5C                     i2l2063:
  4032  000C5C  5024               	movf	___awdiv@sign^0,w,c
  4033  000C5E  B4D8               	btfsc	status,2,c
  4034  000C60  EF34  F006         	goto	i2u97_41
  4035  000C64  EF36  F006         	goto	i2u97_40
  4036  000C68                     i2u97_41:
  4037  000C68  EF3A  F006         	goto	i2l2067
  4038  000C6C                     i2u97_40:
  4039  000C6C  6C25               	negf	___awdiv@quotient^0,c
  4040  000C6E  1E26               	comf	(___awdiv@quotient+1)^0,f,c
  4041  000C70  B0D8               	btfsc	status,0,c
  4042  000C72  2A26               	incf	(___awdiv@quotient+1)^0,f,c
  4043  000C74                     i2l2067:
  4044  000C74  C025  F01F         	movff	___awdiv@quotient,?___awdiv
  4045  000C78  C026  F020         	movff	___awdiv@quotient+1,?___awdiv+1
  4046  000C7C  0012               	return		;funcret
  4047  000C7E                     __end_of___awdiv:
  4048                           	opt callstack 0
  4049                           
  4050 ;; *************** function _LCDPutChar *****************
  4051 ;; Defined at:
  4052 ;;		line 85 in file "solution_lab03.c"
  4053 ;; Parameters:    Size  Location     Type
  4054 ;;  ch              1    wreg     unsigned char 
  4055 ;; Auto vars:     Size  Location     Type
  4056 ;;  ch              1    6[COMRAM] unsigned char 
  4057 ;; Return value:  Size  Location     Type
  4058 ;;                  1    wreg      void 
  4059 ;; Registers used:
  4060 ;;		wreg, status,2, status,0, cstack
  4061 ;; Tracked objects:
  4062 ;;		On entry : 0/0
  4063 ;;		On exit  : 0/0
  4064 ;;		Unchanged: 0/0
  4065 ;; Data sizes:     COMRAM   BANK0   BANK1   BANK2   BANK3   BANK4   BANK5   BANK6   BANK7   BANK8   BANK9  BANK10  BANK1
      +1  BANK12  BANK13  BANK14  BANK15
  4066 ;;      Params:         0       0       0       0       0       0       0       0       0       0       0       0       
      +0       0       0       0       0
  4067 ;;      Locals:         1       0       0       0       0       0       0       0       0       0       0       0       
      +0       0       0       0       0
  4068 ;;      Temps:          1       0       0       0       0       0       0       0       0       0       0       0       
      +0       0       0       0       0
  4069 ;;      Totals:         2       0       0       0       0       0       0       0       0       0       0       0       
      +0       0       0       0       0
  4070 ;;Total ram usage:        2 bytes
  4071 ;; Hardware stack levels used:    1
  4072 ;; Hardware stack levels required when called:    2
  4073 ;; This function calls:
  4074 ;;		i2_WritePort_BBSPI
  4075 ;; This function is called by:
  4076 ;;		_display_normal_clock
  4077 ;;		_return_basic_display
  4078 ;;		_LCDPutStr
  4079 ;; This function uses a non-reentrant model
  4080 ;;
  4081                           
  4082                           	psect	text25
  4083  0010BE                     __ptext25:
  4084                           	opt callstack 0
  4085  0010BE                     _LCDPutChar:
  4086                           	opt callstack 20
  4087                           
  4088                           ;incstack = 0
  4089                           ;LCDPutChar@ch stored from wreg
  4090  0010BE  6E25               	movwf	LCDPutChar@ch^0,c
  4091  0010C0                     
  4092                           ;solution_lab03.c: 86:     _delay((unsigned long)((2)*(10000000/4000.0)));
  4093  0010C0  0E07               	movlw	7
  4094  0010C2  6E24               	movwf	??_LCDPutChar^0,c
  4095  0010C4  0E7D               	movlw	125
  4096  0010C6                     i2u169_47:
  4097  0010C6  2EE8               	decfsz	wreg,f,c
  4098  0010C8  D7FE               	bra	i2u169_47
  4099  0010CA  2E24               	decfsz	??_LCDPutChar^0,f,c
  4100  0010CC  D7FC               	bra	i2u169_47
  4101  0010CE  F000               	nop	
  4102  0010D0                     
  4103                           ;solution_lab03.c: 87:     WritePort_BBSPI (0x12, 0x80);
  4104  0010D0  0E80               	movlw	128
  4105  0010D2  6E22               	movwf	i2WritePort_BBSPI@a^0,c
  4106  0010D4  0E12               	movlw	18
  4107  0010D6  EC02  F009         	call	i2_WritePort_BBSPI
  4108  0010DA                     
  4109                           ;solution_lab03.c: 88:     _delay((unsigned long)((1)*(10000000/4000.0)));
  4110  0010DA  0E04               	movlw	4
  4111  0010DC  6E24               	movwf	??_LCDPutChar^0,c
  4112  0010DE  0E3E               	movlw	62
  4113  0010E0                     i2u170_47:
  4114  0010E0  2EE8               	decfsz	wreg,f,c
  4115  0010E2  D7FE               	bra	i2u170_47
  4116  0010E4  2E24               	decfsz	??_LCDPutChar^0,f,c
  4117  0010E6  D7FC               	bra	i2u170_47
  4118  0010E8                     
  4119                           ;solution_lab03.c: 89:     WritePort_BBSPI (0x13, ch);
  4120  0010E8  C025  F022         	movff	LCDPutChar@ch,i2WritePort_BBSPI@a
  4121  0010EC  0E13               	movlw	19
  4122  0010EE  EC02  F009         	call	i2_WritePort_BBSPI
  4123  0010F2                     
  4124                           ;solution_lab03.c: 90:     _delay((unsigned long)((1)*(10000000/4000.0)));
  4125  0010F2  0E04               	movlw	4
  4126  0010F4  6E24               	movwf	??_LCDPutChar^0,c
  4127  0010F6  0E3E               	movlw	62
  4128  0010F8                     i2u171_47:
  4129  0010F8  2EE8               	decfsz	wreg,f,c
  4130  0010FA  D7FE               	bra	i2u171_47
  4131  0010FC  2E24               	decfsz	??_LCDPutChar^0,f,c
  4132  0010FE  D7FC               	bra	i2u171_47
  4133  001100                     
  4134                           ;solution_lab03.c: 91:     WritePort_BBSPI (0x12, 0xC0);
  4135  001100  0EC0               	movlw	192
  4136  001102  6E22               	movwf	i2WritePort_BBSPI@a^0,c
  4137  001104  0E12               	movlw	18
  4138  001106  EC02  F009         	call	i2_WritePort_BBSPI
  4139  00110A                     
  4140                           ;solution_lab03.c: 92:     _delay((unsigned long)((1)*(10000000/4000.0)));
  4141  00110A  0E04               	movlw	4
  4142  00110C  6E24               	movwf	??_LCDPutChar^0,c
  4143  00110E  0E3E               	movlw	62
  4144  001110                     i2u172_47:
  4145  001110  2EE8               	decfsz	wreg,f,c
  4146  001112  D7FE               	bra	i2u172_47
  4147  001114  2E24               	decfsz	??_LCDPutChar^0,f,c
  4148  001116  D7FC               	bra	i2u172_47
  4149  001118                     
  4150                           ;solution_lab03.c: 93:     WritePort_BBSPI (0x12, 0x00);
  4151  001118  0E00               	movlw	0
  4152  00111A  6E22               	movwf	i2WritePort_BBSPI@a^0,c
  4153  00111C  0E12               	movlw	18
  4154  00111E  EC02  F009         	call	i2_WritePort_BBSPI
  4155  001122  0012               	return		;funcret
  4156  001124                     __end_of_LCDPutChar:
  4157                           	opt callstack 0
  4158                           
  4159 ;; *************** function i2_WritePort_BBSPI *****************
  4160 ;; Defined at:
  4161 ;;		line 66 in file "solution_lab03.c"
  4162 ;; Parameters:    Size  Location     Type
  4163 ;;  port_add        1    wreg     unsigned char 
  4164 ;;  a               1    3[COMRAM] unsigned char 
  4165 ;; Auto vars:     Size  Location     Type
  4166 ;;  port_add        1    4[COMRAM] unsigned char 
  4167 ;; Return value:  Size  Location     Type
  4168 ;;                  1    wreg      void 
  4169 ;; Registers used:
  4170 ;;		wreg, status,2, status,0, cstack
  4171 ;; Tracked objects:
  4172 ;;		On entry : 0/0
  4173 ;;		On exit  : 0/0
  4174 ;;		Unchanged: 0/0
  4175 ;; Data sizes:     COMRAM   BANK0   BANK1   BANK2   BANK3   BANK4   BANK5   BANK6   BANK7   BANK8   BANK9  BANK10  BANK1
      +1  BANK12  BANK13  BANK14  BANK15
  4176 ;;      Params:         1       0       0       0       0       0       0       0       0       0       0       0       
      +0       0       0       0       0
  4177 ;;      Locals:         1       0       0       0       0       0       0       0       0       0       0       0       
      +0       0       0       0       0
  4178 ;;      Temps:          0       0       0       0       0       0       0       0       0       0       0       0       
      +0       0       0       0       0
  4179 ;;      Totals:         2       0       0       0       0       0       0       0       0       0       0       0       
      +0       0       0       0       0
  4180 ;;Total ram usage:        2 bytes
  4181 ;; Hardware stack levels used:    1
  4182 ;; Hardware stack levels required when called:    1
  4183 ;; This function calls:
  4184 ;;		i2_SendByteBBSPI
  4185 ;; This function is called by:
  4186 ;;		_LCDPutChar
  4187 ;;		i2_LCDPutInst
  4188 ;; This function uses a non-reentrant model
  4189 ;;
  4190                           
  4191                           	psect	text26
  4192  001204                     __ptext26:
  4193                           	opt callstack 0
  4194  001204                     i2_WritePort_BBSPI:
  4195                           	opt callstack 20
  4196                           
  4197                           ;incstack = 0
  4198                           ;i2WritePort_BBSPI@port_add stored from wreg
  4199  001204  6E23               	movwf	i2WritePort_BBSPI@port_add^0,c
  4200  001206                     
  4201                           ;solution_lab03.c: 67:     LATAbits.LATA2 = 0;
  4202  001206  9489               	bcf	137,2,c	;volatile
  4203  001208                     
  4204                           ;solution_lab03.c: 68:     SendByteBBSPI(0x40);
  4205  001208  0E40               	movlw	64
  4206  00120A  ECC1  F007         	call	i2_SendByteBBSPI
  4207                           
  4208                           ;solution_lab03.c: 69:     SendByteBBSPI(port_add);
  4209  00120E  5023               	movf	i2WritePort_BBSPI@port_add^0,w,c
  4210  001210  ECC1  F007         	call	i2_SendByteBBSPI
  4211                           
  4212                           ;solution_lab03.c: 70:     SendByteBBSPI(a);
  4213  001214  5022               	movf	i2WritePort_BBSPI@a^0,w,c
  4214  001216  ECC1  F007         	call	i2_SendByteBBSPI
  4215  00121A                     
  4216                           ;solution_lab03.c: 71:     LATAbits.LATA2 = 1;
  4217  00121A  8489               	bsf	137,2,c	;volatile
  4218  00121C  0012               	return		;funcret
  4219  00121E                     __end_ofi2_WritePort_BBSPI:
  4220                           	opt callstack 0
  4221                           
  4222 ;; *************** function i2_SendByteBBSPI *****************
  4223 ;; Defined at:
  4224 ;;		line 42 in file "solution_lab03.c"
  4225 ;; Parameters:    Size  Location     Type
  4226 ;;  output          1    wreg     unsigned char 
  4227 ;; Auto vars:     Size  Location     Type
  4228 ;;  output          1    0[COMRAM] unsigned char 
  4229 ;;  SendByteBBSP    1    2[COMRAM] unsigned char 
  4230 ;;  SendByteBBSP    1    1[COMRAM] unsigned char 
  4231 ;; Return value:  Size  Location     Type
  4232 ;;                  1    wreg      void 
  4233 ;; Registers used:
  4234 ;;		wreg, status,2, status,0
  4235 ;; Tracked objects:
  4236 ;;		On entry : 0/0
  4237 ;;		On exit  : 0/0
  4238 ;;		Unchanged: 0/0
  4239 ;; Data sizes:     COMRAM   BANK0   BANK1   BANK2   BANK3   BANK4   BANK5   BANK6   BANK7   BANK8   BANK9  BANK10  BANK1
      +1  BANK12  BANK13  BANK14  BANK15
  4240 ;;      Params:         0       0       0       0       0       0       0       0       0       0       0       0       
      +0       0       0       0       0
  4241 ;;      Locals:         3       0       0       0       0       0       0       0       0       0       0       0       
      +0       0       0       0       0
  4242 ;;      Temps:          0       0       0       0       0       0       0       0       0       0       0       0       
      +0       0       0       0       0
  4243 ;;      Totals:         3       0       0       0       0       0       0       0       0       0       0       0       
      +0       0       0       0       0
  4244 ;;Total ram usage:        3 bytes
  4245 ;; Hardware stack levels used:    1
  4246 ;; This function calls:
  4247 ;;		Nothing
  4248 ;; This function is called by:
  4249 ;;		i2_WritePort_BBSPI
  4250 ;; This function uses a non-reentrant model
  4251 ;;
  4252                           
  4253                           	psect	text27
  4254  000F82                     __ptext27:
  4255                           	opt callstack 0
  4256  000F82                     i2_SendByteBBSPI:
  4257                           	opt callstack 20
  4258                           
  4259                           ;incstack = 0
  4260                           ;i2SendByteBBSPI@output stored from wreg
  4261  000F82  6E1F               	movwf	i2SendByteBBSPI@output^0,c
  4262  000F84                     
  4263                           ;solution_lab03.c: 43:     unsigned char bitcount;;solution_lab03.c: 44:     unsigned ch
      +                          ar input = output;
  4264  000F84  C01F  F021         	movff	i2SendByteBBSPI@output,i2SendByteBBSPI@input
  4265  000F88                     
  4266                           ;solution_lab03.c: 46:     for(bitcount=0;bitcount<8;bitcount++)
  4267  000F88  0E00               	movlw	0
  4268  000F8A  6E20               	movwf	i2SendByteBBSPI@bitcount^0,c
  4269  000F8C                     i2l263:
  4270                           
  4271                           ;solution_lab03.c: 47:     {;solution_lab03.c: 49:         if(output & 0x80)
  4272  000F8C  AE1F               	btfss	i2SendByteBBSPI@output^0,7,c
  4273  000F8E  EFCB  F007         	goto	i2u89_41
  4274  000F92  EFCD  F007         	goto	i2u89_40
  4275  000F96                     i2u89_41:
  4276  000F96  EFD0  F007         	goto	i2l265
  4277  000F9A                     i2u89_40:
  4278  000F9A                     
  4279                           ;solution_lab03.c: 50:             LATCbits.LATC5 = 1;
  4280  000F9A  8A8B               	bsf	139,5,c	;volatile
  4281  000F9C  EFD1  F007         	goto	i2l266
  4282  000FA0                     i2l265:
  4283                           
  4284                           ;solution_lab03.c: 52:             LATCbits.LATC5 = 0;
  4285  000FA0  9A8B               	bcf	139,5,c	;volatile
  4286  000FA2                     i2l266:
  4287                           
  4288                           ;solution_lab03.c: 54:         if (LATCbits.LATC4)
  4289  000FA2  A88B               	btfss	139,4,c	;volatile
  4290  000FA4  EFD6  F007         	goto	i2u90_41
  4291  000FA8  EFD8  F007         	goto	i2u90_40
  4292  000FAC                     i2u90_41:
  4293  000FAC  EFDC  F007         	goto	i2l1971
  4294  000FB0                     i2u90_40:
  4295  000FB0                     
  4296                           ;solution_lab03.c: 55:             input = (input << 1) | 0x1;
  4297  000FB0  80D8               	bsf	status,0,c
  4298  000FB2  3621               	rlcf	i2SendByteBBSPI@input^0,f,c
  4299  000FB4  EFDF  F007         	goto	i2l1973
  4300  000FB8                     i2l1971:
  4301                           
  4302                           ;solution_lab03.c: 57:             input = input << 1;
  4303  000FB8  5021               	movf	i2SendByteBBSPI@input^0,w,c
  4304  000FBA  2421               	addwf	i2SendByteBBSPI@input^0,w,c
  4305  000FBC  6E21               	movwf	i2SendByteBBSPI@input^0,c
  4306  000FBE                     i2l1973:
  4307                           
  4308                           ;solution_lab03.c: 58:         LATCbits.LATC3 = 1;
  4309  000FBE  868B               	bsf	139,3,c	;volatile
  4310  000FC0                     
  4311                           ;solution_lab03.c: 59:         __nop();__nop();__nop();__nop();__nop();__nop();
  4312  000FC0  F000               	nop	
  4313  000FC2  F000               	nop	
  4314  000FC4  F000               	nop	
  4315  000FC6  F000               	nop	
  4316  000FC8  F000               	nop	
  4317  000FCA  F000               	nop	
  4318  000FCC                     
  4319                           ;solution_lab03.c: 60:         __nop();__nop();__nop();__nop();__nop();__nop();
  4320  000FCC  F000               	nop	
  4321  000FCE  F000               	nop	
  4322  000FD0  F000               	nop	
  4323  000FD2  F000               	nop	
  4324  000FD4  F000               	nop	
  4325  000FD6  F000               	nop	
  4326  000FD8                     
  4327                           ;solution_lab03.c: 61:         LATCbits.LATC3 = 0;
  4328  000FD8  968B               	bcf	139,3,c	;volatile
  4329                           
  4330                           ;solution_lab03.c: 62:         output <<= 1;
  4331  000FDA  90D8               	bcf	status,0,c
  4332  000FDC  361F               	rlcf	i2SendByteBBSPI@output^0,f,c
  4333  000FDE                     
  4334                           ;solution_lab03.c: 63:     }
  4335  000FDE  2A20               	incf	i2SendByteBBSPI@bitcount^0,f,c
  4336  000FE0  0E07               	movlw	7
  4337  000FE2  6420               	cpfsgt	i2SendByteBBSPI@bitcount^0,c
  4338  000FE4  EFF6  F007         	goto	i2u91_41
  4339  000FE8  EFF8  F007         	goto	i2u91_40
  4340  000FEC                     i2u91_41:
  4341  000FEC  EFC6  F007         	goto	i2l263
  4342  000FF0                     i2u91_40:
  4343  000FF0  0012               	return		;funcret
  4344  000FF2                     __end_ofi2_SendByteBBSPI:
  4345                           	opt callstack 0
  4346  0000                     
  4347                           	psect	rparam
  4348  0000                     
  4349                           	psect	temp
  4350  000035                     btemp:
  4351                           	opt callstack 0
  4352  000035                     	ds	1
  4353  0000                     int$flags	set	btemp
  4354  0000                     wtemp8	set	btemp+1
  4355  0000                     ttemp5	set	btemp+1
  4356  0000                     ttemp6	set	btemp+4
  4357  0000                     ttemp7	set	btemp+8
  4358                           tosu	equ	0xFFF
  4359                           tosh	equ	0xFFE
  4360                           tosl	equ	0xFFD
  4361                           stkptr	equ	0xFFC
  4362                           pclatu	equ	0xFFB
  4363                           pclath	equ	0xFFA
  4364                           pcl	equ	0xFF9
  4365                           tblptru	equ	0xFF8
  4366                           tblptrh	equ	0xFF7
  4367                           tblptrl	equ	0xFF6
  4368                           tablat	equ	0xFF5
  4369                           prodh	equ	0xFF4
  4370                           prodl	equ	0xFF3
  4371                           indf0	equ	0xFEF
  4372                           postinc0	equ	0xFEE
  4373                           postdec0	equ	0xFED
  4374                           preinc0	equ	0xFEC
  4375                           plusw0	equ	0xFEB
  4376                           fsr0h	equ	0xFEA
  4377                           fsr0l	equ	0xFE9
  4378                           wreg	equ	0xFE8
  4379                           indf1	equ	0xFE7
  4380                           postinc1	equ	0xFE6
  4381                           postdec1	equ	0xFE5
  4382                           preinc1	equ	0xFE4
  4383                           plusw1	equ	0xFE3
  4384                           fsr1h	equ	0xFE2
  4385                           fsr1l	equ	0xFE1
  4386                           bsr	equ	0xFE0
  4387                           indf2	equ	0xFDF
  4388                           postinc2	equ	0xFDE
  4389                           postdec2	equ	0xFDD
  4390                           preinc2	equ	0xFDC
  4391                           plusw2	equ	0xFDB
  4392                           fsr2h	equ	0xFDA
  4393                           fsr2l	equ	0xFD9
  4394                           status	equ	0xFD8


Data Sizes:
    Strings     0
    Constant    0
    Data        0
    BSS         30
    Persistent  2
    Stack       0

Auto Spaces:
    Space          Size  Autos    Used
    COMRAM           94     20      52
    BANK0           160      0       0
    BANK1           256      0       0
    BANK2           256      0       0
    BANK3           256      0       0
    BANK4           256      0       0
    BANK5           256      0       0
    BANK6           256      0       0
    BANK7           256      0       0
    BANK8           256      0       0
    BANK9           256      0       0
    BANK10          256      0       0
    BANK11          256      0       0
    BANK12          256      0       0
    BANK13          256      0       0
    BANK14          256      0       0
    BANK15           96      0       0

Pointer List with Targets:

    None.

Critical Paths under _main in COMRAM

    _main->_LCDInit
    _LCDInit->_LCDPutInst
    _Port_BBSPIInit->_SendByteBBSPI
    _LCDPutInst->_WritePort_BBSPI
    _WritePort_BBSPI->_SendByteBBSPI

Critical Paths under _function_interrupt in COMRAM

    _function_interrupt->_FSM_of_me
    _FSM_of_me->_display_normal_clock
    _return_basic_display->___awdiv
    _modify_sec->_display_normal_clock
    _modify_min->_display_normal_clock
    _modify_hour->_display_normal_clock
    _display_normal_clock->___awdiv
    i2_LCDPutInst->i2_WritePort_BBSPI
    _LCDPutChar->i2_WritePort_BBSPI
    i2_WritePort_BBSPI->i2_SendByteBBSPI

Critical Paths under _main in BANK0

    None.

Critical Paths under _function_interrupt in BANK0

    None.

Critical Paths under _main in BANK1

    None.

Critical Paths under _function_interrupt in BANK1

    None.

Critical Paths under _main in BANK2

    None.

Critical Paths under _function_interrupt in BANK2

    None.

Critical Paths under _main in BANK3

    None.

Critical Paths under _function_interrupt in BANK3

    None.

Critical Paths under _main in BANK4

    None.

Critical Paths under _function_interrupt in BANK4

    None.

Critical Paths under _main in BANK5

    None.

Critical Paths under _function_interrupt in BANK5

    None.

Critical Paths under _main in BANK6

    None.

Critical Paths under _function_interrupt in BANK6

    None.

Critical Paths under _main in BANK7

    None.

Critical Paths under _function_interrupt in BANK7

    None.

Critical Paths under _main in BANK8

    None.

Critical Paths under _function_interrupt in BANK8

    None.

Critical Paths under _main in BANK9

    None.

Critical Paths under _function_interrupt in BANK9

    None.

Critical Paths under _main in BANK10

    None.

Critical Paths under _function_interrupt in BANK10

    None.

Critical Paths under _main in BANK11

    None.

Critical Paths under _function_interrupt in BANK11

    None.

Critical Paths under _main in BANK12

    None.

Critical Paths under _function_interrupt in BANK12

    None.

Critical Paths under _main in BANK13

    None.

Critical Paths under _function_interrupt in BANK13

    None.

Critical Paths under _main in BANK14

    None.

Critical Paths under _function_interrupt in BANK14

    None.

Critical Paths under _main in BANK15

    None.

Critical Paths under _function_interrupt in BANK15

    None.

Call Graph Tables:

 ---------------------------------------------------------------------------------
 (Depth) Function   	        Calls       Base Space   Used Autos Params    Refs
 ---------------------------------------------------------------------------------
 (0) _main                                                 0     0      0    1555
                            _LCDInit
                  _system_initialize
 ---------------------------------------------------------------------------------
 (1) _system_initialize                                    0     0      0       0
               _interrupt_initialize
              _oscillator_initialize
                        _pin_manager
                 _timer_0_initialize
 ---------------------------------------------------------------------------------
 (2) _timer_0_initialize                                   0     0      0       0
 ---------------------------------------------------------------------------------
 (2) _pin_manager                                          0     0      0       0
 ---------------------------------------------------------------------------------
 (2) _oscillator_initialize                                0     0      0       0
 ---------------------------------------------------------------------------------
 (2) _interrupt_initialize                                 0     0      0       0
 ---------------------------------------------------------------------------------
 (1) _LCDInit                                              1     1      0    1555
                                             19 COMRAM     1     1      0
                          _InitBBSPI
                         _LCDPutInst
                     _Port_BBSPIInit
                    _WritePort_BBSPI
 ---------------------------------------------------------------------------------
 (2) _Port_BBSPIInit                                       1     1      0     105
                                             15 COMRAM     1     1      0
                      _SendByteBBSPI
 ---------------------------------------------------------------------------------
 (2) _LCDPutInst                                           2     2      0     736
                                             17 COMRAM     2     2      0
                    _WritePort_BBSPI
 ---------------------------------------------------------------------------------
 (2) _WritePort_BBSPI                                      2     1      1     714
                                             15 COMRAM     2     1      1
                      _SendByteBBSPI
 ---------------------------------------------------------------------------------
 (3) _SendByteBBSPI                                        3     3      0      90
                                             12 COMRAM     3     3      0
 ---------------------------------------------------------------------------------
 (2) _InitBBSPI                                            0     0      0       0
 ---------------------------------------------------------------------------------
 Estimated maximum stack depth 3
 ---------------------------------------------------------------------------------
 (Depth) Function   	        Calls       Base Space   Used Autos Params    Refs
 ---------------------------------------------------------------------------------
 (5) _function_interrupt                                   0     0      0   43580
                          _FSM_of_me
 ---------------------------------------------------------------------------------
 (6) _FSM_of_me                                            2     2      0   43580
                                             10 COMRAM     2     2      0
               _display_normal_clock
                        _modify_hour
                         _modify_min
                         _modify_sec
                   _normal_clock_run
                     _readButton_RA5
                     _stopwatch_mode
 ---------------------------------------------------------------------------------
 (7) _stopwatch_mode                                       0     0      0       0
 ---------------------------------------------------------------------------------
 (7) _readButton_RA5                                       0     0      0    8716
               _return_basic_display
 ---------------------------------------------------------------------------------
 (8) _return_basic_display                                 0     0      0    8716
                         _LCDPutChar
                            ___awdiv
                            ___awmod
                       i2_LCDPutInst
 ---------------------------------------------------------------------------------
 (7) _normal_clock_run                                     0     0      0       0
 ---------------------------------------------------------------------------------
 (7) _modify_sec                                           0     0      0    8716
               _display_normal_clock
 ---------------------------------------------------------------------------------
 (7) _modify_min                                           0     0      0    8716
               _display_normal_clock
 ---------------------------------------------------------------------------------
 (7) _modify_hour                                          0     0      0    8716
               _display_normal_clock
 ---------------------------------------------------------------------------------
 (8) _display_normal_clock                                 2     2      0    8716
                                              8 COMRAM     2     2      0
                         _LCDPutChar
                            ___awdiv
                            ___awmod
                       i2_LCDPutInst
 ---------------------------------------------------------------------------------
 (9) i2_LCDPutInst                                         2     2      0     412
                                              5 COMRAM     2     2      0
                  i2_WritePort_BBSPI
 ---------------------------------------------------------------------------------
 (9) ___awmod                                              6     2      4    3944
                                              0 COMRAM     6     2      4
 ---------------------------------------------------------------------------------
 (9) ___awdiv                                              8     4      4    3948
                                              0 COMRAM     8     4      4
 ---------------------------------------------------------------------------------
 (9) _LCDPutChar                                           2     2      0     412
                                              5 COMRAM     2     2      0
                  i2_WritePort_BBSPI
 ---------------------------------------------------------------------------------
 (10) i2_WritePort_BBSPI                                   2     1      1     390
                                              3 COMRAM     2     1      1
                    i2_SendByteBBSPI
 ---------------------------------------------------------------------------------
 (11) i2_SendByteBBSPI                                     3     3      0     138
                                              0 COMRAM     3     3      0
 ---------------------------------------------------------------------------------
 Estimated maximum stack depth 11
 ---------------------------------------------------------------------------------

 Call Graph Graphs:

 _main (ROOT)
   _LCDInit
     _InitBBSPI
     _LCDPutInst
       _WritePort_BBSPI
         _SendByteBBSPI
     _Port_BBSPIInit
       _SendByteBBSPI
     _WritePort_BBSPI
       _SendByteBBSPI
   _system_initialize
     _interrupt_initialize
     _oscillator_initialize
     _pin_manager
     _timer_0_initialize

 _function_interrupt (ROOT)
   _FSM_of_me
     _display_normal_clock
       _LCDPutChar
         i2_WritePort_BBSPI
           i2_SendByteBBSPI
       ___awdiv
       ___awmod
       i2_LCDPutInst
         i2_WritePort_BBSPI
           i2_SendByteBBSPI
     _modify_hour
       _display_normal_clock
         _LCDPutChar
           i2_WritePort_BBSPI
             i2_SendByteBBSPI
         ___awdiv
         ___awmod
         i2_LCDPutInst
           i2_WritePort_BBSPI
             i2_SendByteBBSPI
     _modify_min
       _display_normal_clock
         _LCDPutChar
           i2_WritePort_BBSPI
             i2_SendByteBBSPI
         ___awdiv
         ___awmod
         i2_LCDPutInst
           i2_WritePort_BBSPI
             i2_SendByteBBSPI
     _modify_sec
       _display_normal_clock
         _LCDPutChar
           i2_WritePort_BBSPI
             i2_SendByteBBSPI
         ___awdiv
         ___awmod
         i2_LCDPutInst
           i2_WritePort_BBSPI
             i2_SendByteBBSPI
     _normal_clock_run
     _readButton_RA5
       _return_basic_display
         _LCDPutChar
           i2_WritePort_BBSPI
             i2_SendByteBBSPI
         ___awdiv
         ___awmod
         i2_LCDPutInst
           i2_WritePort_BBSPI
             i2_SendByteBBSPI
     _stopwatch_mode

 Address spaces:
Name               Size   Autos  Total    Cost      Usage
BIGRAM             F5F      0       0      37        0.0%
EEDATA             400      0       0       0        0.0%
BITBANK14          100      0       0      33        0.0%
BANK14             100      0       0      34        0.0%
BITBANK13          100      0       0      30        0.0%
BANK13             100      0       0      31        0.0%
BITBANK12          100      0       0      28        0.0%
BANK12             100      0       0      29        0.0%
BITBANK11          100      0       0      26        0.0%
BANK11             100      0       0      27        0.0%
BITBANK10          100      0       0      24        0.0%
BANK10             100      0       0      25        0.0%
BITBANK9           100      0       0      22        0.0%
BANK9              100      0       0      23        0.0%
BITBANK8           100      0       0      20        0.0%
BANK8              100      0       0      21        0.0%
BITBANK7           100      0       0      18        0.0%
BANK7              100      0       0      19        0.0%
BITBANK6           100      0       0      16        0.0%
BANK6              100      0       0      17        0.0%
BITBANK5           100      0       0      14        0.0%
BANK5              100      0       0      15        0.0%
BITBANK4           100      0       0      12        0.0%
BANK4              100      0       0      13        0.0%
BITBANK3           100      0       0      10        0.0%
BANK3              100      0       0      11        0.0%
BITBANK2           100      0       0       8        0.0%
BANK2              100      0       0       9        0.0%
BITBANK1           100      0       0       6        0.0%
BANK1              100      0       0       7        0.0%
BITBANK0            A0      0       0       4        0.0%
BANK0               A0      0       0       5        0.0%
BITBANK15           60      0       0      35        0.0%
BANK15              60      0       0      36        0.0%
BITCOMRAM           5E      0       0       0        0.0%
COMRAM              5E     14      34       1       55.3%
BITSFR               0      0       0     200        0.0%
SFR                  0      0       0     200        0.0%
STACK                0      0       0       2        0.0%
NULL                 0      0       0       0        0.0%
ABS                  0      0      34      32        0.0%
DATA                 0      0      34       3        0.0%
CODE                 0      0       0       0        0.0%


Microchip Technology PIC18 Macro Assembler V2.10 build 88905656 
Symbol Table                                                                                   Mon Sep 30 10:01:27 2019

           ?_function_interrupt 001F                     ?_LCDPutChar 001F                              l61 1240  
                            l62 1240                              u40 0F2A                              u41 0F26  
                            u50 0F40                              u51 0F3C                              u60 0F80  
                            u61 0F7C                    ___awdiv@sign 0024                     ?_LCDPutInst 001F  
                            _hr 001E      _flag_change_normal_sec00_2 0010                 _timer0ReloadVal 0033  
         SendByteBBSPI@bitcount 002C                             l160 126A                             l163 1286  
                           l260 11E8                             l157 1258                             l254 1182  
                           l166 128C                             l263 0F1C                             l272 1202  
                           l257 127C                             l265 0F30                             l169 11CE  
                           l266 0F32                             l275 1056                             l269 0F80  
                           _min 001D                             _sec 001C                    ___awmod@sign 0024  
                           wreg 000FE8         _flag_change_normal_min2 0012         _flag_change_normal_sec2 0011  
              ?i2_SendByteBBSPI 001F         _flag_change_normal_hour 001A                 __end_of_LCDInit 1184  
                  __CFG_LVP$OFF 000000           ?_display_normal_clock 001F            ??_function_interrupt 002B  
                  __CFG_WDT$OFF 000000                            l1201 0F54                            l1211 0F5E  
                          l1203 0F56                            l1221 0F68                            l1213 0F60  
                          l1205 0F58                            l1223 0F6E                            l1215 0F62  
                          l1207 0F5A                            l1225 0F70                            l1217 0F64  
                          l1209 0F5C                            l1219 0F66                            l2123 11EC  
                          l1181 0F14                            l2125 11EE                            l1191 0F40  
                          l1183 0F18                            l2127 1200                            l1193 0F48  
                          l1601 11CA                            l1195 0F4E                            l1611 11E6  
                          l1603 11CC                            l1605 126C                            l1197 0F50  
                          l1189 0F2A                            l1199 0F52                            l1607 11D2  
                          l1609 11D4                            l2521 1124                            l2371 1004  
                          l2531 113E                            l2523 1128                            l2381 103E  
                          l2373 100E                            l2541 116A                            l2533 1144  
                          l2525 112A                            l2383 104C                            l2375 101C  
                          l2543 1170                            l2535 114A                            l2527 112C  
                          l1591 127E                            l2377 1026                            l2369 0FF4  
                          l2545 1176                            l2537 1154                            l2529 113C  
                          l1593 1288                            l1585 125A                            l2379 1034  
                          l2547 117C                            l2539 1164                            l1587 1262  
                          l1595 11B4                            l1851 1250                            l1589 1264  
                          l1597 11C0                            l1853 1254                            l1599 11C8  
                          l2591 1238                            l1849 1248                            l2593 123C  
                          l2595 123E                            l2589 1234                            _LATD 000F8C  
                          u1607 115A                            u1617 0FFA                            u1627 1014  
                          u1637 102C                            u1647 1044                            u1597 1132  
                          _TMR0 000FD6                            _min2 0015                            _sec2 0014  
                          _main 1234                            btemp 0035   __size_of_return_basic_display 00B0  
              ?_WritePort_BBSPI 002E                            start 000E                   __CFG_IESO$OFF 000000  
              ??_stopwatch_mode 001F                   __CFG_MCLRE$ON 000000                    ___param_bank 000000  
            __size_of_FSM_of_me 00D2              _timer_0_initialize 11B4                           ?_main 001F  
               __end_of___awdiv 0C7E                 __end_of___awmod 0E96                           _T0CON 000FD5  
               ___awdiv@divisor 0021                           i2l401 0BB8                           i2l411 0AEC  
                         i2l421 0A20                           i2l406 0A68                           i2l263 0F8C  
                         i2l175 11B0                           i2l272 121C                           i2l416 099C  
                         i2l424 0D22                           i2l265 0FA0                           i2l409 0ACC  
                         i2l266 0FA2                           i2l426 0D34                           i2l442 0954  
                         i2l275 10BC                           i2l419 0A00                           i2l700 0E94  
                         i2l269 0FF0                           i2l453 0882                           i2l278 1122  
                         i2l382 0784                           i2l391 0DE4                           i2l396 0B34  
                         i2l388 0F10                           i2l399 0B98                           i2l687 0C7C  
               ___awdiv@counter 0023                           _TMR0H 000FD7                           _TMR0L 000FD6  
                         _TRISD 000F95                   __CFG_PWRT$OFF 000000                  __CFG_FCMEN$OFF 000000  
           ?_timer_0_initialize 001F         __size_of_Port_BBSPIInit 001A          ?_oscillator_initialize 001F  
                __CFG_BOREN$OFF 000000   __size_of_interrupt_initialize 0006             __size_of_LCDPutChar 0066  
           __size_of_LCDPutInst 0066                           ttemp5 0036                           ttemp6 0039  
                         ttemp7 003D                           status 000FD8                           wtemp8 0036  
          ??_timer_0_initialize 002B                 __initialization 121E                    ?_modify_hour 001F  
                  __end_of_main 1248                  __CFG_OSC$HSPLL 000000                          ??_main 0033  
          i2SendByteBBSPI@input 0021                    ?_pin_manager 001F                   __activetblptr 000003  
                     ??_LCDInit 0032                    LCDPutChar@ch 0025          ??_display_normal_clock 0027  
                        _ADCON1 000FC1              __size_of_InitBBSPI 0012                ___awdiv@dividend 001F  
                  LCDPutInst@ch 0031                _normal_clock_run 0E96                          i2l2001 0FDE  
                        i2l2003 0FE0                          i2l2011 10C0                          i2l2005 1206  
                        i2l2021 1100                          i2l2013 10D0                          i2l2101 0E84  
                        i2l2007 1208                          i2l2023 110A                          i2l2015 10DA  
                        i2l2031 0BCC                          i2l2103 0E8C                          i2l2111 1074  
                        i2l2009 121A                          i2l2025 1118                          i2l2017 10E8  
                        i2l2041 0BF2                          i2l2033 0BD4                          i2l2121 10B2  
                        i2l2113 1082                          i2l2201 0248                          i2l2019 10F2  
                        i2l2051 0C2A                          i2l2043 0BFA                          i2l2035 0BD8  
                        i2l2027 0BBA                          i2l2115 108C                          i2l2107 105A  
                        i2l2211 0296                          i2l2203 0262                          i2l2131 0016  
                        i2l2061 0C56                          i2l2053 0C30                          i2l2045 0C0C  
                        i2l2037 0BE6                          i2l2029 0BBE                          i2l2117 109A  
                        i2l2109 106A                          i2l2301 0560                          i2l2221 02E2  
                        i2l2205 0272                          i2l2213 02B0                          i2l2141 0064  
                        i2l2133 0026                          i2l2055 0C46                          i2l2047 0C14  
                        i2l2063 0C5C                          i2l2039 0BEE                          i2l2071 0DE6  
                        i2l2119 10A4                          i2l2311 05BA                          i2l2303 057A  
                        i2l2231 0348                          i2l2223 02F8                          i2l2215 02BC  
                        i2l2207 0276                          i2l2151 00BE                          i2l2143 006A  
                        i2l2135 002A                          i2l2065 0C6C                          i2l2057 0C4E  
                        i2l2049 0C1C                          i2l2081 0E12                          i2l2073 0DEA  
                        i2l2321 061C                          i2l2313 05C6                          i2l2305 0594  
                        i2l2241 0396                          i2l2233 034C                          i2l2225 0300  
                        i2l2217 02C2                          i2l2209 027C                          i2l2161 010C  
                        i2l2145 0084                          i2l2137 0030                          i2l2153 00D8  
                        i2l2129 0012                          i2l2401 0B3C                          i2l2067 0C74  
                        i2l2059 0C50                          i2l2091 0E4A                          i2l2083 0E1A  
                        i2l2075 0DF8                          i2l2331 0660                          i2l2323 062C  
                        i2l2315 05DC                          i2l2307 05A0                          i2l2251 03E4  
                        i2l2243 039A                          i2l2235 0352                          i2l2227 031A  
                        i2l2219 02D6                          i2l2171 015A                          i2l2155 00E8  
                        i2l2163 0126                          i2l2147 009E                          i2l2139 004A  
                        i2l2411 0B94                          i2l2403 0B58                          i2l2093 0E60  
                        i2l2085 0E2C                          i2l2077 0E00                          i2l2341 06A4  
                        i2l2333 067A                          i2l2325 063C                          i2l2317 05E4  
                        i2l2309 05A6                          i2l2261 042E                          i2l2253 03E8  
                        i2l2245 03A0                          i2l2237 036C                          i2l2229 0338  
                        i2l2181 01A8                          i2l2165 0136                          i2l2173 0174  
                        i2l2157 00EC                          i2l2149 00A4                          i2l2413 0B9C  
                        i2l2405 0B78                          i2l2421 0A3C                          i2l2501 0CE6  
                        i2l2095 0E68                          i2l2087 0E34                          i2l2079 0E04  
                        i2l2351 0700                          i2l2343 06BE                          i2l2335 068A  
                        i2l2327 0640                          i2l2319 05FE                          i2l2271 0472  
                        i2l2263 0434                          i2l2255 03EE                          i2l2247 03BA  
                        i2l2239 0386                          i2l2191 01FA                          i2l2183 01C6  
                        i2l2175 0184                          i2l2167 013A                          i2l2159 00F2  
                        i2l2407 0B80                          i2l2415 0BA4                          i2l2431 0A6C  
                        i2l2423 0A4C                          i2l1631 0E98                          i2l2097 0E6E  
                        i2l2089 0E3C                          i2l2353 0706                          i2l2345 06D8  
                        i2l2337 069A                          i2l2329 0646                          i2l2281 04C4  
                        i2l2273 048C                          i2l2265 0448                          i2l2257 0408  
                        i2l2249 03D4                          i2l2185 01D6                          i2l2193 0214  
                        i2l2177 0188                          i2l2169 0140                          i2l2361 0742  
                        i2l2409 0B84                          i2l2441 0AB8                          i2l2425 0A50  
                        i2l2433 0A70                          i2l2417 0A22                          i2l1641 0EB6  
                        i2l1633 0E9C                          i2l2513 0D08                          i2l1801 07A4  
                        i2l2601 11A2                          i2l2099 0E74                          i2l2355 0720  
                        i2l2347 06E8                          i2l2339 069E                          i2l2291 0512  
                        i2l2283 04DE                          i2l2275 04AA                          i2l2267 0454  
                        i2l2259 0422                          i2l2195 0224                          i2l2187 01DA  
                        i2l2179 018E                          i2l2443 0AC8                          i2l2435 0A8C  
                        i2l2427 0A54                          i2l2419 0A30                          i2l2451 0964  
                        i2l1651 0ED4                          i2l1635 0EAC                          i2l1643 0EBA  
                        i2l2515 0D1A                          i2l2507 0CEE                          i2l1811 07D4  
                        i2l1803 07A8                          i2l2603 11A4                          i2l2357 073A  
                        i2l2349 06F8                          i2l2293 052C                          i2l2277 04BA  
                        i2l2285 04F8                          i2l2269 046A                          i2l2197 0228  
                        i2l2189 01E0                          i2l2445 0AD0                          i2l2437 0AAC  
                        i2l2429 0A64                          i2l2461 0998                          i2l2453 0970  
                        i2l1645 0ECA                          i2l1653 0ED8                          i2l1637 0EB0  
                        i2l1629 0E96                          i2l2509 0D00                          i2l1821 0812  
                        i2l1813 07F4                          i2l1805 07B4                          i2l2605 11A8  
                        i2l2287 0508                          i2l2295 0546                          i2l2279 04BE  
                        i2l2199 022E                          i2l2391 0B18                          i2l2439 0AB4  
                        i2l2447 0AD8                          i2l2471 09E8                          i2l2463 09A0  
                        i2l2455 0980                          i2l1655 0EE8                          i2l1647 0ECE  
                        i2l1639 0EB2                          i2l2367 0D36                          i2l2519 0D30  
                        i2l1831 0830                          i2l1823 0816                          i2l1815 07FC  
                        i2l1807 07C2                          i2l2551 0888                          i2l2607 11AC  
                        i2l2297 0556                          i2l2289 050C                          i2l2393 0B1C  
                        i2l2385 0AEE                          i2l2473 09EC                          i2l2457 0984  
                        i2l2465 09A4                          i2l2449 0956                          i2l1657 0EF8  
                        i2l1649 0ED0                          i2l2481 0C7E                          i2l1841 084E  
                        i2l1833 0834                          i2l1825 0818                          i2l1817 07FE  
                        i2l1809 07C6                          i2l2625 0926                          i2l2561 08BE  
                        i2l2553 0894                          i2l2627 0756                          i2l2299 055A  
                        i2l2395 0B20                          i2l2387 0AFC                          i2l2475 09FC  
                        i2l2467 09C0                          i2l2459 0988                          i2l1659 0F08  
                        i2l2491 0CB8                          i2l2483 0C8E                          i2l1843 085E  
                        i2l1835 0836                          i2l1827 081C                          i2l1819 0802  
                        i2l2571 08DA                          i2l2563 08C2                          i2l2555 08AA  
                        i2l2397 0B30                          i2l2389 0B08                          i2l2477 0A04  
                        i2l2469 09E0                          i2l2493 0CC8                          i2l2485 0C9C  
                        i2l1845 086E                          i2l1837 083A                          i2l1829 0820  
                        i2l2573 08E2                          i2l2565 08C6                          i2l2557 08B2  
                        i2l2549 0884                          i2l2399 0B38                          i2l2479 0A0C  
                        i2l2495 0CCC                          i2l2487 0CB0                          i2l1839 083E  
                        i2l1847 087A                          i2l2575 08EE                          i2l2567 08CA  
                        i2l2559 08BA                          i2l2583 0912                          i2l1961 0F88  
                        i2l2577 08FA                          i2l2569 08D2                          i2l1971 0FB8  
                        i2l2499 0CD4                          i2l2579 0906                          i2l1981 0FC6  
                        i2l1973 0FBE                          i2l1797 0786                          i2l2597 1186  
                        i2l1991 0FD0                          i2l1983 0FC8                          i2l1975 0FC0  
                        i2l1967 0F9A                          i2l1959 0F84                          i2l1799 0794  
                        i2l2599 1194                          i2l1993 0FD2                          i2l1985 0FCA  
                        i2l1977 0FC2                          i2l1969 0FB0                          i2l1995 0FD4  
                        i2l1987 0FCC                          i2l1979 0FC4                          i2l1997 0FD6  
                        i2l1989 0FCE                          i2l1999 0FD8                          _OSCCON 000FD3  
             __end_of_FSM_of_me 0956                          _MY_FSM 000E                  __CFG_XINST$OFF 000000  
                     ??___awdiv 0023                       ??___awmod 0023         i2SendByteBBSPI@bitcount 0020  
                 ?i2_LCDPutInst 001F                          clear_0 1224                ___awdiv@quotient 0025  
               ___awmod@divisor 0021                 ___awmod@counter 0023          Port_BBSPIInit@port_dir 002E  
                    __accesstop 0060         __end_of__initialization 122A                   ___rparam_used 000001  
        __size_of_SendByteBBSPI 0070                  __pcstackCOMRAM 001F               __end_of_InitBBSPI 127E  
                  ??_LCDPutChar 0024                  ??i2_LCDPutInst 0024                    ??_LCDPutInst 0030  
          _count_1sec_stopwatch 0001               _count_change_time 0007                  _Port_BBSPIInit 11D0  
         i2SendByteBBSPI@output 001F                   _current_state 000D         __size_of_readButton_RA5 00B8  
              _flag_for_dot_dot 001B              __end_of_LCDPutChar 1124                      __pnvCOMRAM 0033  
            __end_of_LCDPutInst 1058       i2WritePort_BBSPI@port_add 0023                      _blink_2sec 0005  
          __size_of_modify_hour 00CC    __end_of_return_basic_display 0DE6          __end_of_Port_BBSPIInit 11EA  
                       _LCDInit 1124                   _SendByteBBSPI 0F12         ??_oscillator_initialize 002B  
                       _RB0flag 0016                         _RA5flag 0017            __size_of_pin_manager 0012  
                       i2u44_40 0EAC                         i2u44_41 0EA8                         i2u45_40 0ECA  
                       i2u45_41 0EC6                         i2u46_40 0EE8                         i2u46_41 0EE4  
                       _OSCTUNE 000F9B                         i2u47_40 0EF8                         i2u47_41 0EF4  
                       i2u48_40 0F08                         i2u80_40 0812                         i2u48_41 0F04  
                       i2u80_41 080E                         i2u81_40 0830                         i2u81_41 082C  
                       i2u90_40 0FB0                         i2u82_40 084E                         i2u90_41 0FAC  
                       i2u82_41 084A                         i2u91_40 0FF0                         i2u83_40 085E  
                       i2u75_40 0794                         i2u91_41 0FEC                         i2u83_41 085A  
                       i2u75_41 0790                         i2u92_40 0BCC                         i2u84_40 086E  
                       i2u76_40 07A4                         i2u92_41 0BC8                         i2u84_41 086A  
                       i2u76_41 07A0                         i2u93_40 0BE6                         i2u77_40 07C2  
                       i2u93_41 0BE2                         i2u77_41 07BE                         i2u94_40 0C0C  
                       i2u78_40 07D4                         i2u94_41 0C08                         i2u78_41 07D0  
                       i2u95_40 0C2A                         i2u79_40 07F4                         i2u95_41 0C26  
                       i2u79_41 07F0                         i2u96_40 0C46                         i2u96_41 0C42  
                       i2u89_40 0F9A                         i2u97_40 0C6C                         i2u89_41 0F96  
                       i2u97_41 0C68                         i2u98_40 0DF8                         i2u98_41 0DF4  
                       i2u99_40 0E12                         i2u99_41 0E0E     __size_of_function_interrupt 11AC  
              WritePort_BBSPI@a 002E                  i2LCDPutInst@ch 0025        __size_ofi2_SendByteBBSPI 0070  
                    _count_1sec 000B                         __Hparam 0000                         __Lparam 0000  
                       ___awdiv 0BBA                         ___awmod 0DE6        __end_of_normal_clock_run 0F12  
      __size_of_WritePort_BBSPI 001A    __end_of_interrupt_initialize 128E                         __pcinit 121E  
                       __ramtop 1000                         _sec0_01 0013                         __ptext0 1234  
                       __ptext1 1248                         __ptext2 11B4                         __ptext3 125A  
                       __ptext4 127E                         __ptext5 1288                         __ptext6 1124  
                       __ptext7 11D0                         __ptext8 0FF2                         __ptext9 11EA  
                     _T0CONbits 000FD5                  ?_SendByteBBSPI 001F                 ?_Port_BBSPIInit 001F  
              ___awmod@dividend 001F                      _modify_min 0A22                      _modify_sec 0956  
                __pintcode_body 1184            end_of_initialization 122A            __end_ofi2_LCDPutInst 10BE  
                       int_func 1184                       _FSM_of_me 0884     __size_of_timer_0_initialize 001C  
                       postinc0 000FEE               i2_WritePort_BBSPI 1204                       _PORTAbits 000F80  
                     _PORTBbits 000F81              ?i2_WritePort_BBSPI 0022         __size_of_stopwatch_mode 00FE  
                     _TRISAbits 000F92                       _TRISBbits 000F93                       _TRISCbits 000F94  
                     _TRISFbits 000F97             ??i2_WritePort_BBSPI 0023   __size_of_display_normal_clock 0774  
                _readButton_RA5 0C7E             SendByteBBSPI@output 002B          _flag_change_normal_min 0019  
        _flag_change_normal_sec 0018            _return_basic_display 0D36                      ?_FSM_of_me 001F  
             ??i2_SendByteBBSPI 001F       __end_ofi2_WritePort_BBSPI 121E                 ??_SendByteBBSPI 002B  
                     _InitBBSPI 126C               ??_WritePort_BBSPI 002F             start_initialization 121E  
                   ?_modify_min 001F                     ?_modify_sec 001F          __end_of_readButton_RA5 0D36  
          _interrupt_initialize 1288           ?_return_basic_display 001F                      ?_InitBBSPI 001F  
                      ?_LCDInit 001F                     __pbssCOMRAM 0001           __size_ofi2_LCDPutInst 0066  
__size_of_oscillator_initialize 000A   __end_of_oscillator_initialize 1288                 ?_readButton_RA5 001F  
         ?_interrupt_initialize 001F                     ??_FSM_of_me 0029                   ??_modify_hour 0029  
                     __pintcode 0008      __size_ofi2_WritePort_BBSPI 001A             __size_of_modify_min 00CC  
                      ?___awdiv 001F             __size_of_modify_sec 00CC                        ?___awmod 001F  
              ??_Port_BBSPIInit 002E               ?_normal_clock_run 001F                    i2_LCDPutInst 1058  
                 ??_pin_manager 002B              ??_normal_clock_run 001F                  _stopwatch_mode 0786  
    __end_of_function_interrupt 11B4          ??_return_basic_display 0027                        _LATAbits 000F89  
                      _LATCbits 000F8B                        _LATFbits 000F8E                        i2u100_40 0E2C  
                      i2u100_41 0E28                        i2u101_40 0E4A                        i2u101_41 0E46  
                      i2u102_40 0E60                        i2u110_40 0272                        i2u102_41 0E5C  
                      i2u110_41 026E                        i2u103_40 0E84                        i2u111_40 02D6  
                      i2u103_41 0E80                        i2u111_41 02D2                        i2u120_40 0556  
                      i2u112_40 02F8                        i2u104_40 0026                        i2u120_41 0552  
                      i2u112_41 02F4                        i2u104_41 0022                        i2u121_40 05BA  
                      i2u113_40 0348                        i2u105_40 00E8                        i2u121_41 05B6  
                      i2u113_41 0344                        i2u105_41 00E4                        i2u122_40 05DC  
                      i2u114_40 0396                        i2u106_40 0136                        i2u130_40 0B18  
                      i2u122_41 05D8                        i2u114_41 0392                        i2u106_41 0132  
                      i2u130_41 0B14                        i2u123_40 062C                        i2u115_40 03E4  
                      i2u107_40 0184                        i2u131_40 0B30                        i2u123_41 0628  
                      i2u115_41 03E0                        i2u107_41 0180                        i2u131_41 0B2C  
                      i2u124_40 063C                        i2u116_40 0448                        i2u108_40 01D6  
                      i2u132_40 0B58                        i2u140_40 0AC8                        i2u124_41 0638  
                      i2u116_41 0444                        i2u108_41 01D2                        i2u132_41 0B54  
                      i2u140_41 0AC4                        i2u125_40 068A                        i2u117_40 046A  
                      i2u109_40 0224                        i2u133_40 0B78                        i2u141_40 0964  
                      i2u125_41 0686                        i2u117_41 0466                        i2u109_41 0220  
                      i2u133_41 0B74                        i2u141_41 0960                        i2u126_40 069A  
                      i2u118_40 04BA                        i2u134_40 0B94                        i2u142_40 0980  
                      i2u150_40 0CC8                        i2u126_41 0696                        i2u118_41 04B6  
                      i2u134_41 0B90                        i2u142_41 097C                        i2u150_41 0CC4  
                      i2u127_40 06E8                        i2u119_40 0508                        i2u135_40 0A30  
                      i2u143_40 0998                        i2u151_40 0CE6                        i2u127_41 06E4  
                      i2u119_41 0504                        i2u135_41 0A2C                        i2u143_41 0994  
                      i2u151_41 0CE2                        i2u128_40 06F8                        i2u136_40 0A4C  
                      i2u144_40 09C0                        i2u152_40 0D00                        i2u128_41 06F4  
                      i2u136_41 0A48                        i2u144_41 09BC                        i2u152_41 0CFC  
                      i2u129_40 0AFC                        i2u137_40 0A64                        i2u145_40 09E0  
                      i2u153_40 0D1A                        i2u129_41 0AF8                        i2u137_41 0A60  
                      i2u145_41 09DC                        i2u153_41 0D16                        i2u138_40 0A8C  
                      i2u146_40 09FC                        i2u154_40 0D30                        i2u138_41 0A88  
                      i2u146_41 09F8                        i2u154_41 0D2C                        i2u170_47 10E0  
                      i2u139_40 0AAC                        i2u147_40 0C8E                        i2u155_40 08AA  
                      i2u139_41 0AA8                        i2u147_41 0C8A                        i2u155_41 08A6  
                      i2u171_47 10F8                        i2u148_40 0C9C                        i2u156_40 1194  
                      i2u148_41 0C98                        i2u156_41 1190                        i2u172_47 1110  
                      i2u149_40 0CB0                        i2u157_40 11A2                        i2u149_41 0CAC  
                      i2u157_41 119E                        i2u165_47 1060                        i2u166_47 107A  
            i2WritePort_BBSPI@a 0022                        i2u167_47 1092                        i2u168_47 10AA  
                      i2u169_47 10C6                        _RCONbits 000FD0          __end_of_stopwatch_mode 0884  
           __end_of_modify_hour 0BBA                     ??_InitBBSPI 002B              SendByteBBSPI@input 002D  
              __size_of_LCDInit 0060               _system_initialize 1248             __end_of_pin_manager 126C  
        ??_interrupt_initialize 002B                     _INTCON2bits 000FF1              ?_system_initialize 001F  
               i2_SendByteBBSPI 0F82      __end_of_timer_0_initialize 11D0             ??_system_initialize 002B  
                      __Hrparam 0000                        __Lrparam 0000    __end_of_display_normal_clock 0786  
               _WritePort_BBSPI 11EA                __size_of___awdiv 00C4                __size_of___awmod 00B0  
               ?_stopwatch_mode 001F       __end_of_system_initialize 125A                 _RB0_press_count 0009  
                  ??_modify_min 0029                    ??_modify_sec 0029                        __ptext10 0F12  
                      __ptext11 126C                        __ptext20 0AEE                        __ptext21 0012  
                      __ptext13 0884                        __ptext22 1058                        __ptext14 0786  
                      __ptext23 0DE6                        __ptext15 0C7E                        __ptext24 0BBA  
                      __ptext16 0D36                        __ptext25 10BE                        __ptext17 0E96  
                      __ptext26 1204                        __ptext18 0956                        __ptext27 0F82  
                      __ptext19 0A22                   __size_of_main 0014                     _modify_hour 0AEE  
                      int$flags 0035              __end_of_modify_min 0AEE              __end_of_modify_sec 0A22  
                    _LCDPutChar 10BE                      _LCDPutInst 0FF2                     _pin_manager 125A  
         __end_of_SendByteBBSPI 0F82                ??_readButton_RA5 0027                      _INTCONbits 000FF2  
       __end_ofi2_SendByteBBSPI 0FF2                        intlevel2 0000                    _number_press 0003  
       __end_of_WritePort_BBSPI 1204         WritePort_BBSPI@port_add 002F      __size_of_system_initialize 0012  
          _display_normal_clock 0012       __size_of_normal_clock_run 007C           _oscillator_initialize 127E  
            _function_interrupt 0008             _stopwatch_firsttime 000F  
